(lp0
F1.0
aF2.0
aF1.0
aF2.0
aF1.0
aF2.0
aF2.0
aF1.0
aF2.0
aF1.0
aF2.0
aF1.0
aF1.0
aF1.0
aF2.0
aF1.0
aF1.0
aF2.0
aF1.0
aF1.0
aF1.0
aF1.0
aF1.0
aF1.0
aF1.0
aF1.0
aF2.0
aF2.0
aF1.0
aF2.0
aF1.0
aF2.0
aF1.0
aF1.0
aF1.0
aF1.0
aF2.0
aF1.0
aF1.0
aF1.0
aF1.0
aF2.0
aF1.0
aF1.0
aF1.0
aF2.0
aF1.0
aF1.0
aF1.0
aF1.0
aF1.0
aF1.0
aF2.0
aF1.0
aF1.0
aF1.0
aF1.0
aF2.0
aF1.0
aF1.0
aF1.0
aF1.0
aF1.0
aF2.0
aF1.0
aF1.0
aF1.0
aF2.0
aF2.0
aF1.0
aF2.0
aF1.0
aF1.0
aF1.0
aF1.0
aF1.0
aF1.0
aF1.0
aF1.0
aF1.0
aF1.0
aF2.0
aF1.0
aF1.0
aF1.0
aF2.0
aF2.0
aF1.0
aF1.0
aF1.0
aF2.0
aF1.0
aF1.0
aF1.0
aF2.0
aF2.0
aF1.0
aF2.0
aF1.0
aF1.0
aF1.0
aF1.0
aF1.0
aF1.0
aF1.0
aF1.0
aF2.0
aF2.0
aF1.0
aF2.0
aF1.0
aF2.0
aF1.0
aF1.0
aF2.0
aF1.0
aF1.0
aF1.0
aF2.0
aF2.0
aF2.0
aF2.0
aF1.0
aF1.0
aF1.0
aF1.0
aF1.0
aF1.0
aF1.0
aF1.0
aF1.0
aF1.0
aF1.0
aF1.0
aF1.0
aF1.0
aF1.0
aF1.0
aF1.0
aF1.0
aF1.0
aF1.0
aF1.0
aF1.0
aF1.0
aF2.0
aF1.0
aF1.0
aF1.0
aF2.0
aF2.0
aF1.0
aF1.0
aF1.0
aF1.0
aF1.0
aF1.0
aF1.0
aF2.0
aF1.0
aF1.0
aF1.0
aF1.0
aF2.0
aF2.0
aF1.0
aF1.0
aF1.0
aF1.0
aF1.0
aF1.0
aF1.0
aF1.0
aF2.0
aF1.0
aF1.0
aF1.0
aF2.0
aF1.0
aF2.0
aF1.0
aF2.0
aF1.0
aF1.0
aF1.0
aF1.0
aF2.0
aF1.0
aF1.0
aF1.0
aF1.0
aF1.0
aF1.0
aF1.0
aF1.0
aF1.0
aF1.0
aF2.0
aF1.0
aF1.0
aF1.0
aF1.0
aF2.0
aF1.0
aF1.0
aF1.0
aF1.0
aF1.0
aF1.0
aF1.0
aF1.0
aF1.0
aF2.0
aF1.0
aF1.0
aF2.0
aF1.0
aF1.0
aF1.0
aF1.0
aF1.0
aF1.0
aF1.0
aF1.0
aF1.0
aF2.0
aF2.0
aF2.0
aF1.0
aF1.0
aF1.0
aF1.0
aF1.0
aF1.0
aF1.0
aF2.0
aF2.0
aF2.0
aF1.0
aF2.0
aF1.0
aF1.0
aF1.0
aF1.0
aF2.0
aF1.0
aF1.0
aF1.0
aF2.0
aF2.0
aF1.0
aF1.0
aF1.0
aF1.0
aF1.0
aF1.0
aF1.0
aF1.0
aF2.0
aF1.0
aF2.0
aF2.0
aF1.0
aF1.0
aF1.0
aF2.0
aF1.0
aF1.0
aF2.0
aF1.0
aF1.0
aF1.0
aF1.0
aF2.0
aF1.0
aF1.0
aF1.0
aF1.0
aF1.0
aF2.0
aF1.0
aF1.0
aF1.0
aF1.0
aF2.0
aF1.0
aF1.0
aF1.0
aF2.0
aF1.0
aF1.0
aF2.0
aF2.0
aF2.0
aF2.0
aF1.0
aF1.0
aF1.0
aF1.0
aF2.0
aF2.0
aF1.0
aF1.0
aF1.0
aF2.0
aF2.0
aF1.0
aF1.0
aF2.0
aF2.0
aF1.0
aF1.0
aF2.0
aF1.0
aF2.0
aF1.0
aF1.0
aF2.0
aF2.0
aF2.0
aF2.0
aF1.0
aF1.0
aF1.0
aF1.0
aF2.0
aF1.0
aF1.0
aF1.0
aF1.0
aF2.0
aF1.0
aF1.0
aF2.0
aF2.0
aF1.0
aF1.0
aF2.0
aF1.0
aF1.0
aF1.0
aF2.0
aF1.0
aF2.0
aF1.0
aF1.0
aF1.0
aF2.0
aF1.0
aF2.0
aF1.0
aF1.0
aF2.0
aF1.0
aF2.0
aF2.0
aF2.0
aF1.0
aF1.0
aF1.0
aF1.0
aF2.0
aF1.0
aF2.0
aF2.0
aF1.0
aF2.0
aF1.0
aF1.0
aF2.0
aF1.0
aF2.0
aF1.0
aF1.0
aF2.0
aF1.0
aF2.0
aF1.0
aF1.0
aF1.0
aF1.0
aF1.0
aF2.0
aF1.0
aF1.0
aF2.0
aF1.0
aF1.0
aF2.0
aF1.0
aF1.0
aF1.0
aF1.0
aF1.0
aF1.0
aF1.0
aF2.0
aF1.0
aF2.0
aF1.0
aF2.0
aF1.0
aF2.0
aF1.0
aF2.0
aF1.0
aF1.0
aF2.0
aF2.0
aF1.0
aF1.0
aF1.0
aF2.0
aF2.0
aF1.0
aF1.0
aF1.0
aF1.0
aF2.0
aF2.0
aF1.0
aF2.0
aF1.0
aF1.0
aF1.0
aF2.0
aF2.0
aF2.0
aF1.0
aF1.0
aF2.0
aF1.0
aF1.0
aF2.0
aF2.0
aF2.0
aF2.0
aF1.0
aF1.0
aF1.0
aF1.0
aF1.0
aF2.0
aF1.0
aF2.0
aF1.0
aF1.0
aF1.0
aF1.0
aF1.0
aF1.0
aF1.0
aF1.0
aF1.0
aF1.0
aF1.0
aF1.0
aF1.0
aF1.0
aF1.0
aF1.0
aF1.0
aF2.0
aF1.0
aF1.0
aF1.0
aF1.0
aF1.0
aF1.0
aF1.0
aF1.0
aF1.0
aF1.0
aF2.0
aF1.0
aF1.0
aF1.0
aF1.0
aF1.0
aF1.0
aF1.0
aF1.0
aF1.0
aF2.0
aF1.0
aF1.0
aF2.0
aF2.0
aF2.0
aF2.0
aF2.0
aF1.0
aF1.0
aF2.0
aF2.0
aF2.0
aF1.0
aF2.0
aF2.0
aF1.0
aF1.0
aF1.0
aF1.0
aF1.0
aF1.0
aF1.0
aF2.0
aF1.0
aF1.0
aF1.0
aF1.0
aF1.0
aF2.0
aF2.0
aF2.0
aF1.0
aF2.0
aF1.0
aF2.0
aF2.0
aF1.0
aF1.0
aF2.0
aF1.0
aF1.0
aF1.0
aF2.0
aF1.0
aF2.0
aF1.0
aF2.0
aF2.0
aF1.0
aF1.0
aF1.0
aF1.0
aF2.0
aF1.0
aF2.0
aF1.0
aF2.0
aF2.0
aF2.0
aF1.0
aF1.0
aF1.0
aF1.0
aF1.0
aF2.0
aF1.0
aF2.0
aF1.0
aF2.0
aF1.0
aF1.0
aF1.0
aF2.0
aF2.0
aF1.0
aF1.0
aF2.0
aF1.0
aF1.0
aF2.0
aF2.0
aF1.0
aF1.0
aF1.0
aF2.0
aF1.0
aF1.0
aF2.0
aF1.0
aF1.0
aF1.0
aF1.0
aF1.0
aF2.0
aF2.0
aF1.0
aF2.0
aF1.0
aF2.0
aF2.0
aF1.0
aF1.0
aF1.0
aF1.0
aF2.0
aF1.0
aF1.0
aF1.0
aF1.0
aF1.0
aF1.0
aF1.0
aF2.0
aF1.0
aF2.0
aF1.0
aF1.0
aF2.0
aF2.0
aF1.0
aF1.0
aF1.0
aF2.0
aF1.0
aF1.0
aF1.0
aF1.0
aF1.0
aF1.0
aF1.0
aF1.0
aF2.0
aF2.0
aF1.0
aF1.0
aF2.0
aF1.0
aF1.0
aF2.0
aF2.0
aF1.0
aF1.0
aF1.0
aF1.0
aF2.0
aF1.0
aF2.0
aF2.0
aF1.0
aF2.0
aF2.0
aF2.0
aF2.0
aF2.0
aF1.0
aF1.0
aF2.0
aF1.0
aF2.0
aF2.0
aF1.0
aF2.0
aF2.0
aF2.0
aF2.0
aF1.0
aF1.0
aF1.0
aF1.0
aF1.0
aF1.0
aF1.0
aF2.0
aF2.0
aF1.0
aF1.0
aF1.0
aF2.0
aF1.0
aF1.0
aF1.0
aF1.0
aF1.0
aF1.0
aF1.0
aF1.0
aF1.0
aF1.0
aF2.0
aF2.0
aF2.0
aF1.0
aF1.0
aF2.0
aF1.0
aF2.0
aF1.0
aF1.0
aF2.0
aF1.0
aF1.0
aF1.0
aF1.0
aF1.0
aF1.0
aF1.0
aF1.0
aF2.0
aF1.0
aF1.0
aF1.0
aF1.0
aF2.0
aF1.0
aF1.0
aF2.0
aF2.0
aF1.0
aF1.0
aF1.0
aF2.0
aF1.0
aF2.0
aF2.0
aF1.0
aF1.0
aF2.0
aF1.0
aF2.0
aF1.0
aF1.0
aF1.0
aF1.0
aF1.0
aF2.0
aF2.0
aF2.0
aF1.0
aF2.0
aF1.0
aF2.0
aF2.0
aF1.0
aF1.0
aF1.0
aF1.0
aF1.0
aF1.0
aF2.0
aF2.0
aF1.0
aF1.0
aF1.0
aF2.0
aF1.0
aF1.0
aF1.0
aF1.0
aF2.0
aF1.0
aF2.0
aF2.0
aF2.0
aF2.0
aF1.0
aF1.0
aF2.0
aF1.0
aF1.0
aF1.0
aF1.0
aF2.0
aF1.0
aF1.0
aF1.0
aF2.0
aF2.0
aF1.0
aF1.0
aF1.0
aF2.0
aF1.0
aF1.0
aF2.0
aF1.0
aF2.0
aF2.0
aF2.0
aF2.0
aF1.0
aF2.0
aF1.0
aF1.0
aF1.0
aF2.0
aF1.0
aF1.0
aF2.0
aF1.0
aF1.0
aF1.0
aF1.0
aF1.0
aF1.0
aF1.0
aF1.0
aF1.0
aF1.0
aF1.0
aF2.0
aF2.0
aF1.0
aF2.0
aF1.0
aF1.0
aF2.0
aF2.0
aF1.0
aF1.0
aF1.0
aF1.0
aF1.0
aF1.0
aF2.0
aF1.0
aF1.0
aF2.0
aF1.0
aF1.0
aF1.0
aF2.0
aF1.0
aF1.0
aF2.0
aF1.0
aF2.0
aF1.0
aF1.0
aF1.0
aF1.0
aF1.0
aF1.0
aF1.0
aF1.0
aF1.0
aF1.0
aF1.0
aF2.0
aF1.0
aF1.0
aF1.0
aF1.0
aF2.0
aF1.0
aF1.0
aF1.0
aF2.0
aF1.0
aF1.0
aF1.0
aF1.0
aF1.0
aF1.0
aF2.0
aF1.0
aF2.0
aF2.0
aF2.0
aF1.0
aF2.0
aF2.0
aF2.0
aF1.0
aF2.0
aF2.0
aF2.0
aF2.0
aF1.0
aF1.0
aF1.0
aF1.0
aF1.0
aF1.0
aF2.0
aF1.0
aF1.0
aF1.0
aF1.0
aF1.0
aF2.0
aF1.0
aF1.0
aF2.0
aF2.0
aF2.0
aF2.0
aF1.0
aF2.0
aF1.0
aF1.0
aF1.0
aF1.0
aF1.0
aF2.0
aF1.0
aF2.0
aF1.0
aF2.0
aF1.0
aF2.0
aF1.0
aF1.0
aF1.0
aF1.0
aF1.0
aF2.0
aF2.0
aF2.0
aF2.0
aF1.0
aF2.0
aF1.0
aF1.0
aF2.0
aF2.0
aF1.0
aF1.0
aF1.0
aF1.0
aF1.0
aF1.0
aF2.0
aF1.0
aF1.0
aF1.0
aF2.0
aF2.0
aF1.0
aF2.0
aF2.0
aF2.0
aF2.0
aF2.0
aF1.0
aF1.0
aF1.0
aF1.0
aF2.0
aF1.0
aF1.0
aF1.0
aF2.0
aF1.0
aF1.0
aF1.0
aF1.0
aF2.0
aF1.0
aF2.0
aF1.0
aF1.0
aF2.0
aF1.0
aF2.0
aF1.0
aF1.0
aF2.0
aF1.0
aF1.0
aF2.0
aF1.0
aF1.0
aF1.0
aF2.0
aF1.0
aF2.0
aF1.0
aF1.0
aF1.0
aF1.0
aF1.0
aF2.0
aF2.0
aF1.0
aF1.0
aF1.0
aF2.0
aF2.0
aF1.0
aF1.0
aF1.0
aF1.0
aF1.0
aF1.0
aF1.0
aF2.0
aF1.0
aF2.0
aF1.0
aF1.0
aF1.0
aF2.0
aF1.0
aF1.0
aF2.0
aF2.0
aF2.0
aF2.0
aF1.0
aF1.0
aF2.0
aF1.0
aF1.0
aF1.0
aF2.0
aF1.0
aF5.0
aF4.0
aF4.0
aF4.0
aF5.0
aF5.0
aF4.0
aF5.0
aF5.0
aF5.0
aF5.0
aF4.0
aF5.0
aF5.0
aF4.0
aF5.0
aF4.0
aF4.0
aF4.0
aF4.0
aF4.0
aF5.0
aF5.0
aF4.0
aF5.0
aF5.0
aF5.0
aF5.0
aF5.0
aF4.0
aF4.0
aF5.0
aF5.0
aF4.0
aF5.0
aF5.0
aF5.0
aF5.0
aF5.0
aF5.0
aF5.0
aF4.0
aF5.0
aF4.0
aF4.0
aF5.0
aF5.0
aF5.0
aF5.0
aF5.0
aF5.0
aF5.0
aF5.0
aF5.0
aF4.0
aF5.0
aF5.0
aF5.0
aF4.0
aF5.0
aF5.0
aF5.0
aF5.0
aF5.0
aF5.0
aF5.0
aF5.0
aF5.0
aF5.0
aF5.0
aF5.0
aF5.0
aF5.0
aF5.0
aF5.0
aF5.0
aF5.0
aF4.0
aF5.0
aF4.0
aF5.0
aF4.0
aF5.0
aF4.0
aF5.0
aF5.0
aF4.0
aF5.0
aF5.0
aF5.0
aF5.0
aF5.0
aF5.0
aF5.0
aF4.0
aF5.0
aF5.0
aF5.0
aF4.0
aF4.0
aF5.0
aF5.0
aF4.0
aF5.0
aF5.0
aF5.0
aF4.0
aF5.0
aF5.0
aF5.0
aF5.0
aF5.0
aF5.0
aF4.0
aF4.0
aF4.0
aF4.0
aF4.0
aF5.0
aF4.0
aF5.0
aF5.0
aF4.0
aF5.0
aF5.0
aF5.0
aF5.0
aF5.0
aF5.0
aF5.0
aF4.0
aF4.0
aF4.0
aF5.0
aF5.0
aF5.0
aF4.0
aF4.0
aF4.0
aF4.0
aF5.0
aF4.0
aF5.0
aF5.0
aF5.0
aF5.0
aF5.0
aF5.0
aF4.0
aF5.0
aF5.0
aF5.0
aF5.0
aF4.0
aF4.0
aF5.0
aF5.0
aF5.0
aF5.0
aF4.0
aF5.0
aF5.0
aF5.0
aF5.0
aF5.0
aF4.0
aF5.0
aF4.0
aF5.0
aF5.0
aF5.0
aF5.0
aF5.0
aF4.0
aF5.0
aF5.0
aF5.0
aF4.0
aF4.0
aF5.0
aF4.0
aF5.0
aF5.0
aF5.0
aF5.0
aF5.0
aF5.0
aF4.0
aF5.0
aF5.0
aF5.0
aF5.0
aF5.0
aF5.0
aF5.0
aF4.0
aF5.0
aF5.0
aF5.0
aF4.0
aF5.0
aF5.0
aF5.0
aF5.0
aF4.0
aF4.0
aF5.0
aF5.0
aF5.0
aF5.0
aF5.0
aF5.0
aF5.0
aF4.0
aF4.0
aF5.0
aF5.0
aF4.0
aF5.0
aF5.0
aF5.0
aF5.0
aF4.0
aF4.0
aF4.0
aF4.0
aF5.0
aF4.0
aF4.0
aF5.0
aF5.0
aF4.0
aF4.0
aF5.0
aF5.0
aF5.0
aF5.0
aF5.0
aF4.0
aF5.0
aF5.0
aF4.0
aF4.0
aF4.0
aF5.0
aF4.0
aF5.0
aF5.0
aF5.0
aF5.0
aF5.0
aF5.0
aF5.0
aF4.0
aF5.0
aF5.0
aF4.0
aF5.0
aF4.0
aF4.0
aF4.0
aF5.0
aF5.0
aF4.0
aF4.0
aF5.0
aF5.0
aF5.0
aF5.0
aF5.0
aF5.0
aF5.0
aF5.0
aF5.0
aF5.0
aF4.0
aF4.0
aF5.0
aF4.0
aF4.0
aF5.0
aF5.0
aF5.0
aF5.0
aF5.0
aF4.0
aF5.0
aF5.0
aF4.0
aF5.0
aF5.0
aF5.0
aF5.0
aF4.0
aF5.0
aF5.0
aF5.0
aF5.0
aF5.0
aF4.0
aF4.0
aF5.0
aF5.0
aF5.0
aF5.0
aF5.0
aF5.0
aF5.0
aF4.0
aF5.0
aF5.0
aF5.0
aF5.0
aF5.0
aF5.0
aF5.0
aF4.0
aF5.0
aF5.0
aF4.0
aF4.0
aF5.0
aF5.0
aF5.0
aF5.0
aF5.0
aF4.0
aF4.0
aF4.0
aF4.0
aF5.0
aF5.0
aF4.0
aF5.0
aF5.0
aF5.0
aF4.0
aF4.0
aF4.0
aF5.0
aF5.0
aF5.0
aF4.0
aF4.0
aF5.0
aF5.0
aF4.0
aF4.0
aF4.0
aF5.0
aF5.0
aF4.0
aF5.0
aF5.0
aF5.0
aF4.0
aF4.0
aF4.0
aF4.0
aF4.0
aF5.0
aF5.0
aF5.0
aF5.0
aF5.0
aF5.0
aF5.0
aF5.0
aF5.0
aF5.0
aF5.0
aF5.0
aF4.0
aF4.0
aF5.0
aF5.0
aF5.0
aF4.0
aF5.0
aF5.0
aF4.0
aF5.0
aF5.0
aF4.0
aF5.0
aF5.0
aF5.0
aF5.0
aF5.0
aF5.0
aF4.0
aF5.0
aF5.0
aF5.0
aF5.0
aF5.0
aF5.0
aF5.0
aF4.0
aF5.0
aF5.0
aF5.0
aF5.0
aF5.0
aF5.0
aF5.0
aF5.0
aF5.0
aF5.0
aF5.0
aF5.0
aF4.0
aF5.0
aF4.0
aF5.0
aF4.0
aF4.0
aF5.0
aF5.0
aF5.0
aF4.0
aF5.0
aF4.0
aF4.0
aF5.0
aF5.0
aF5.0
aF5.0
aF5.0
aF4.0
aF5.0
aF5.0
aF4.0
aF5.0
aF5.0
aF4.0
aF5.0
aF4.0
aF4.0
aF4.0
aF4.0
aF4.0
aF4.0
aF5.0
aF5.0
aF4.0
aF5.0
aF5.0
aF5.0
aF5.0
aF5.0
aF5.0
aF5.0
aF5.0
aF5.0
aF4.0
aF5.0
aF5.0
aF4.0
aF5.0
aF5.0
aF4.0
aF4.0
aF4.0
aF5.0
aF5.0
aF4.0
aF5.0
aF5.0
aF5.0
aF5.0
aF5.0
aF4.0
aF4.0
aF5.0
aF5.0
aF5.0
aF5.0
aF5.0
aF5.0
aF5.0
aF5.0
aF4.0
aF5.0
aF4.0
aF5.0
aF4.0
aF5.0
aF5.0
aF5.0
aF5.0
aF5.0
aF5.0
aF4.0
aF5.0
aF5.0
aF5.0
aF5.0
aF5.0
aF5.0
aF5.0
aF4.0
aF5.0
aF5.0
aF5.0
aF4.0
aF5.0
aF4.0
aF4.0
aF5.0
aF4.0
aF4.0
aF5.0
aF4.0
aF5.0
aF5.0
aF4.0
aF5.0
aF5.0
aF4.0
aF5.0
aF4.0
aF5.0
aF5.0
aF5.0
aF5.0
aF4.0
aF4.0
aF5.0
aF5.0
aF5.0
aF4.0
aF4.0
aF5.0
aF5.0
aF5.0
aF5.0
aF5.0
aF5.0
aF5.0
aF4.0
aF5.0
aF5.0
aF4.0
aF5.0
aF5.0
aF5.0
aF5.0
aF5.0
aF5.0
aF5.0
aF5.0
aF5.0
aF5.0
aF4.0
aF4.0
aF5.0
aF4.0
aF4.0
aF5.0
aF4.0
aF5.0
aF5.0
aF5.0
aF5.0
aF4.0
aF4.0
aF5.0
aF5.0
aF5.0
aF5.0
aF5.0
aF5.0
aF5.0
aF5.0
aF4.0
aF4.0
aF5.0
aF4.0
aF5.0
aF5.0
aF5.0
aF4.0
aF5.0
aF4.0
aF5.0
aF5.0
aF5.0
aF5.0
aF4.0
aF4.0
aF5.0
aF5.0
aF5.0
aF5.0
aF5.0
aF5.0
aF4.0
aF5.0
aF5.0
aF4.0
aF5.0
aF5.0
aF4.0
aF4.0
aF5.0
aF5.0
aF5.0
aF4.0
aF5.0
aF5.0
aF5.0
aF5.0
aF5.0
aF5.0
aF4.0
aF5.0
aF5.0
aF5.0
aF5.0
aF5.0
aF5.0
aF4.0
aF5.0
aF5.0
aF5.0
aF4.0
aF5.0
aF5.0
aF4.0
aF5.0
aF5.0
aF5.0
aF5.0
aF5.0
aF5.0
aF5.0
aF5.0
aF4.0
aF5.0
aF4.0
aF5.0
aF5.0
aF5.0
aF5.0
aF5.0
aF5.0
aF4.0
aF4.0
aF5.0
aF5.0
aF5.0
aF5.0
aF5.0
aF5.0
aF5.0
aF5.0
aF5.0
aF4.0
aF5.0
aF4.0
aF5.0
aF4.0
aF5.0
aF5.0
aF5.0
aF5.0
aF5.0
aF5.0
aF5.0
aF4.0
aF4.0
aF5.0
aF5.0
aF5.0
aF4.0
aF5.0
aF5.0
aF4.0
aF4.0
aF5.0
aF5.0
aF5.0
aF5.0
aF5.0
aF5.0
aF5.0
aF5.0
aF4.0
aF4.0
aF5.0
aF5.0
aF5.0
aF5.0
aF5.0
aF5.0
aF4.0
aF5.0
aF5.0
aF5.0
aF4.0
aF4.0
aF4.0
aF5.0
aF4.0
aF4.0
aF5.0
aF5.0
aF4.0
aF4.0
aF5.0
aF5.0
aF4.0
aF5.0
aF4.0
aF5.0
aF5.0
aF5.0
aF5.0
aF5.0
aF5.0
aF4.0
aF4.0
aF4.0
aF5.0
aF4.0
aF4.0
aF4.0
aF5.0
aF5.0
aF5.0
aF5.0
aF4.0
aF5.0
aF4.0
aF5.0
aF5.0
aF5.0
aF5.0
aF5.0
aF5.0
aF5.0
aF5.0
aF5.0
aF4.0
aF5.0
aF4.0
aF4.0
aF4.0
aF4.0
aF5.0
aF4.0
aF5.0
aF5.0
aF4.0
aF4.0
aF5.0
aF5.0
aF5.0
aF5.0
aF5.0
aF5.0
aF4.0
aF4.0
aF4.0
aF5.0
aF5.0
aF4.0
aF5.0
aF4.0
aF5.0
aF5.0
aF5.0
aF5.0
aF4.0
aF4.0
aF5.0
aF4.0
aF5.0
aF4.0
aF4.0
aF5.0
aF4.0
aF5.0
aF5.0
aF5.0
aF5.0
aF5.0
aF5.0
aF5.0
aF5.0
aF4.0
aF5.0
aF5.0
aF5.0
aF5.0
aF4.0
aF5.0
aF5.0
aF4.0
aF5.0
aF4.0
aF5.0
aF4.0
aF5.0
aF5.0
aF4.0
aF4.0
aF5.0
aF4.0
aF5.0
aF5.0
aF5.0
aF5.0
aF5.0
aF5.0
aF5.0
aF4.0
aF5.0
aF5.0
aF4.0
aF5.0
aF4.0
aF5.0
aF4.0
aF5.0
aF5.0
aF4.0
aF5.0
aF5.0
aF5.0
aF5.0
aF4.0
aF4.0
aF5.0
aF5.0
aF5.0
aF5.0
aF4.0
aF5.0
aF4.0
aF5.0
aF4.0
aF4.0
aF5.0
aF5.0
aF5.0
aF5.0
aF5.0
aF4.0
aF4.0
aF5.0
aF5.0
aF4.0
aF5.0
aF5.0
aF5.0
aF5.0
aF5.0
aF5.0
aF5.0
aF5.0
aF5.0
aF5.0
aF4.0
aF4.0
aF5.0
aF4.0
aF5.0
aF5.0
aF4.0
aF5.0
aF4.0
aF5.0
aF4.0
aF5.0
aF4.0
aF5.0
aF5.0
aF4.0
aF4.0
aF5.0
aF5.0
aF4.0
aF5.0
aF5.0
aF5.0
aF5.0
aF5.0
aF4.0
aF5.0
aF5.0
aF5.0
aF5.0
aF5.0
aF5.0
aF4.0
aF4.0
aF5.0
aF4.0
aF5.0
aF5.0
aF5.0
aF5.0
aF4.0
aF5.0
aF5.0
aF5.0
aF5.0
aF5.0
aF4.0
aF4.0
aF4.0
aF5.0
aF4.0
aF5.0
aF5.0
aF5.0
aF4.0
aF4.0
aF5.0
aF4.0
aF5.0
aF4.0
aF5.0
aF4.0
aF5.0
aF4.0
aF4.0
aF4.0
aF5.0
aF4.0
aF5.0
aF5.0
aF5.0
aF5.0
aF5.0
aF4.0
aF5.0
aF5.0
aF5.0
aF5.0
aF5.0
aF4.0
aF4.0
aF5.0
aF5.0
aF4.0
aF5.0
aF4.0
aF5.0
aF5.0
aF4.0
aF5.0
aF4.0
aF5.0
aF5.0
aF5.0
aF4.0
aF4.0
aF5.0
aF5.0
aF5.0
aF5.0
aF5.0
aF5.0
aF5.0
aF5.0
aF4.0
aF5.0
aF5.0
aF5.0
aF5.0
aF5.0
aF4.0
aF5.0
aF5.0
aF5.0
aF4.0
aF4.0
aF5.0
aF5.0
aF5.0
aF5.0
aF5.0
aF5.0
aF5.0
aF5.0
aF4.0
aF5.0
aF5.0
aF5.0
aF5.0
aF5.0
aF5.0
aF5.0
aF5.0
aF4.0
aF5.0
aF5.0
aF5.0
aF5.0
aF5.0
aF5.0
aF5.0
aF5.0
aF5.0
aF4.0
aF5.0
aF4.0
aF4.0
aF5.0
aF4.0
aF2.0
aF4.0
aF4.0
aF1.0
aF1.0
aF4.0
aF4.0
aF5.0
aF1.0
aF5.0
aF5.0
aF5.0
aF4.0
aF4.0
aF5.0
aF5.0
aF1.0
aF4.0
aF1.0
aF1.0
aF5.0
aF4.0
aF1.0
aF5.0
aF1.0
aF5.0
aF2.0
aF5.0
aF1.0
aF5.0
aF5.0
aF4.0
aF4.0
aF5.0
aF5.0
aF5.0
aF5.0
aF5.0
aF5.0
aF5.0
aF1.0
aF1.0
aF5.0
aF1.0
aF5.0
aF1.0
aF1.0
aF4.0
aF5.0
aF4.0
aF1.0
aF5.0
aF5.0
aF1.0
aF4.0
aF5.0
aF1.0
aF5.0
aF2.0
aF2.0
aF1.0
aF1.0
aF4.0
aF5.0
aF2.0
aF5.0
aF5.0
aF5.0
aF5.0
aF2.0
aF5.0
aF4.0
aF5.0
aF5.0
aF5.0
aF4.0
aF5.0
aF4.0
aF1.0
aF4.0
aF2.0
aF2.0
aF4.0
aF4.0
aF4.0
aF5.0
aF5.0
aF5.0
aF5.0
aF5.0
aF5.0
aF4.0
aF5.0
aF1.0
aF1.0
aF4.0
aF5.0
aF1.0
aF4.0
aF4.0
aF1.0
aF4.0
aF4.0
aF5.0
aF4.0
aF5.0
aF5.0
aF1.0
aF4.0
aF4.0
aF5.0
aF5.0
aF5.0
aF5.0
aF5.0
aF5.0
aF5.0
aF5.0
aF5.0
aF5.0
aF1.0
aF5.0
aF1.0
aF1.0
aF5.0
aF5.0
aF1.0
aF2.0
aF4.0
aF5.0
aF4.0
aF5.0
aF5.0
aF4.0
aF5.0
aF1.0
aF5.0
aF5.0
aF5.0
aF5.0
aF5.0
aF5.0
aF1.0
aF4.0
aF5.0
aF4.0
aF5.0
aF1.0
aF1.0
aF4.0
aF5.0
aF2.0
aF5.0
aF4.0
aF5.0
aF5.0
aF5.0
aF5.0
aF5.0
aF5.0
aF4.0
aF4.0
aF2.0
aF5.0
aF5.0
aF2.0
aF5.0
aF5.0
aF4.0
aF4.0
aF5.0
aF4.0
aF5.0
aF1.0
aF5.0
aF1.0
aF5.0
aF5.0
aF5.0
aF4.0
aF5.0
aF5.0
aF5.0
aF5.0
aF4.0
aF5.0
aF5.0
aF1.0
aF1.0
aF4.0
aF4.0
aF1.0
aF2.0
aF1.0
aF5.0
aF1.0
aF4.0
aF5.0
aF5.0
aF1.0
aF2.0
aF1.0
aF5.0
aF1.0
aF2.0
aF5.0
aF2.0
aF5.0
aF5.0
aF5.0
aF5.0
aF5.0
aF5.0
aF1.0
aF5.0
aF4.0
aF5.0
aF4.0
aF5.0
aF5.0
aF5.0
aF1.0
aF4.0
aF5.0
aF5.0
aF5.0
aF5.0
aF5.0
aF5.0
aF5.0
aF5.0
aF4.0
aF5.0
aF4.0
aF5.0
aF5.0
aF5.0
aF5.0
aF1.0
aF5.0
aF2.0
aF5.0
aF5.0
aF5.0
aF4.0
aF5.0
aF4.0
aF4.0
aF5.0
aF4.0
aF5.0
aF5.0
aF4.0
aF5.0
aF5.0
aF5.0
aF5.0
aF4.0
aF5.0
aF5.0
aF5.0
aF5.0
aF1.0
aF5.0
aF5.0
aF5.0
aF4.0
aF4.0
aF1.0
aF2.0
aF5.0
aF1.0
aF4.0
aF4.0
aF5.0
aF4.0
aF4.0
aF1.0
aF5.0
aF5.0
aF4.0
aF5.0
aF5.0
aF5.0
aF5.0
aF5.0
aF4.0
aF5.0
aF5.0
aF5.0
aF1.0
aF1.0
aF2.0
aF4.0
aF1.0
aF5.0
aF2.0
aF1.0
aF5.0
aF5.0
aF5.0
aF5.0
aF5.0
aF5.0
aF5.0
aF1.0
aF5.0
aF5.0
aF5.0
aF4.0
aF5.0
aF2.0
aF5.0
aF5.0
aF5.0
aF5.0
aF1.0
aF5.0
aF2.0
aF4.0
aF5.0
aF4.0
aF5.0
aF4.0
aF5.0
aF5.0
aF5.0
aF5.0
aF5.0
aF5.0
aF5.0
aF4.0
aF1.0
aF4.0
aF5.0
aF5.0
aF5.0
aF5.0
aF4.0
aF1.0
aF4.0
aF5.0
aF1.0
aF5.0
aF4.0
aF4.0
aF5.0
aF5.0
aF4.0
aF4.0
aF4.0
aF5.0
aF5.0
aF5.0
aF5.0
aF5.0
aF5.0
aF5.0
aF1.0
aF2.0
aF4.0
aF2.0
aF2.0
aF5.0
aF5.0
aF1.0
aF5.0
aF5.0
aF4.0
aF1.0
aF4.0
aF5.0
aF5.0
aF5.0
aF5.0
aF5.0
aF5.0
aF1.0
aF4.0
aF5.0
aF4.0
aF5.0
aF4.0
aF4.0
aF5.0
aF5.0
aF5.0
aF5.0
aF5.0
aF5.0
aF5.0
aF5.0
aF4.0
aF5.0
aF5.0
aF5.0
aF4.0
aF5.0
aF5.0
aF4.0
aF5.0
aF4.0
aF5.0
aF5.0
aF1.0
aF4.0
aF4.0
aF5.0
aF5.0
aF5.0
aF1.0
aF5.0
aF5.0
aF5.0
aF5.0
aF5.0
aF5.0
aF5.0
aF1.0
aF5.0
aF5.0
aF5.0
aF5.0
aF2.0
aF5.0
aF5.0
aF5.0
aF5.0
aF5.0
aF5.0
aF5.0
aF1.0
aF1.0
aF4.0
aF5.0
aF1.0
aF1.0
aF1.0
aF5.0
aF5.0
aF5.0
aF5.0
aF5.0
aF5.0
aF5.0
aF5.0
aF5.0
aF4.0
aF1.0
aF5.0
aF1.0
aF5.0
aF5.0
aF5.0
aF4.0
aF5.0
aF5.0
aF4.0
aF4.0
aF2.0
aF5.0
aF4.0
aF1.0
aF5.0
aF2.0
aF5.0
aF4.0
aF4.0
aF4.0
aF4.0
aF4.0
aF1.0
aF1.0
aF4.0
aF5.0
aF5.0
aF5.0
aF5.0
aF5.0
aF4.0
aF1.0
aF5.0
aF4.0
aF4.0
aF1.0
aF4.0
aF1.0
aF4.0
aF4.0
aF4.0
aF4.0
aF5.0
aF4.0
aF1.0
aF1.0
aF4.0
aF4.0
aF5.0
aF4.0
aF1.0
aF4.0
aF5.0
aF4.0
aF1.0
aF1.0
aF4.0
aF4.0
aF5.0
aF5.0
aF5.0
aF4.0
aF1.0
aF4.0
aF1.0
aF1.0
aF1.0
aF1.0
aF4.0
aF5.0
aF5.0
aF5.0
aF5.0
aF5.0
aF1.0
aF5.0
aF4.0
aF5.0
aF4.0
aF5.0
aF5.0
aF1.0
aF4.0
aF2.0
aF5.0
aF5.0
aF4.0
aF2.0
aF4.0
aF4.0
aF1.0
aF2.0
aF4.0
aF4.0
aF1.0
aF2.0
aF1.0
aF4.0
aF4.0
aF4.0
aF5.0
aF5.0
aF5.0
aF5.0
aF5.0
aF5.0
aF5.0
aF5.0
aF5.0
aF5.0
aF5.0
aF5.0
aF5.0
aF5.0
aF5.0
aF5.0
aF5.0
aF5.0
aF4.0
aF4.0
aF4.0
aF5.0
aF5.0
aF5.0
aF2.0
aF1.0
aF1.0
aF4.0
aF2.0
aF1.0
aF5.0
aF4.0
aF4.0
aF4.0
aF4.0
aF5.0
aF5.0
aF1.0
aF5.0
aF4.0
aF2.0
aF5.0
aF1.0
aF1.0
aF1.0
aF1.0
aF5.0
aF5.0
aF4.0
aF5.0
aF2.0
aF2.0
aF2.0
aF1.0
aF5.0
aF1.0
aF5.0
aF5.0
aF5.0
aF1.0
aF1.0
aF2.0
aF4.0
aF5.0
aF2.0
aF4.0
aF1.0
aF2.0
aF5.0
aF5.0
aF5.0
aF5.0
aF4.0
aF4.0
aF5.0
aF2.0
aF5.0
aF5.0
aF5.0
aF1.0
aF5.0
aF4.0
aF5.0
aF5.0
aF5.0
aF5.0
aF5.0
aF5.0
aF5.0
aF4.0
aF5.0
aF5.0
aF5.0
aF1.0
aF5.0
aF5.0
aF1.0
aF5.0
aF5.0
aF4.0
aF2.0
aF4.0
aF5.0
aF4.0
aF5.0
aF1.0
aF5.0
aF4.0
aF1.0
aF5.0
aF5.0
aF5.0
aF5.0
aF5.0
aF5.0
aF1.0
aF4.0
aF5.0
aF4.0
aF5.0
aF1.0
aF5.0
aF5.0
aF5.0
aF2.0
aF5.0
aF4.0
aF4.0
aF4.0
aF5.0
aF4.0
aF1.0
aF5.0
aF4.0
aF5.0
aF5.0
aF5.0
aF5.0
aF5.0
aF5.0
aF4.0
aF5.0
aF4.0
aF5.0
aF1.0
aF5.0
aF5.0
aF5.0
aF4.0
aF5.0
aF5.0
aF4.0
aF1.0
aF4.0
aF5.0
aF5.0
aF5.0
aF5.0
aF4.0
aF4.0
aF5.0
aF5.0
aF5.0
aF2.0
aF5.0
aF5.0
aF5.0
aF4.0
aF5.0
aF1.0
aF1.0
aF1.0
aF5.0
aF5.0
aF5.0
aF2.0
aF5.0
aF5.0
aF5.0
aF1.0
aF1.0
aF1.0
aF5.0
aF5.0
aF5.0
aF5.0
aF5.0
aF5.0
aF5.0
aF4.0
aF5.0
aF1.0
aF1.0
aF5.0
aF1.0
aF4.0
aF5.0
aF5.0
aF5.0
aF5.0
aF5.0
aF5.0
aF1.0
aF5.0
aF4.0
aF5.0
aF5.0
aF5.0
aF5.0
aF5.0
aF5.0
aF5.0
aF5.0
aF2.0
aF5.0
aF5.0
aF4.0
aF1.0
aF5.0
aF1.0
aF1.0
aF4.0
aF1.0
aF2.0
aF4.0
aF4.0
aF4.0
aF4.0
aF4.0
aF5.0
aF5.0
aF5.0
aF5.0
aF5.0
aF5.0
aF5.0
aF5.0
aF5.0
aF5.0
aF5.0
aF5.0
aF4.0
aF5.0
aF5.0
aF5.0
aF5.0
aF5.0
aF5.0
aF1.0
aF5.0
aF5.0
aF5.0
aF5.0
aF4.0
aF5.0
aF5.0
aF5.0
aF5.0
aF2.0
aF4.0
aF5.0
aF5.0
aF5.0
aF1.0
aF5.0
aF5.0
aF1.0
aF1.0
aF4.0
aF5.0
aF2.0
aF2.0
aF5.0
aF5.0
aF5.0
aF5.0
aF4.0
aF5.0
aF2.0
aF5.0
aF5.0
aF4.0
aF5.0
aF1.0
aF5.0
aF5.0
aF4.0
aF5.0
aF5.0
aF2.0
aF5.0
aF5.0
aF5.0
aF5.0
aF5.0
aF5.0
aF5.0
aF4.0
aF5.0
aF4.0
aF4.0
aF5.0
aF1.0
aF1.0
aF5.0
aF5.0
aF2.0
aF5.0
aF1.0
aF5.0
aF2.0
aF4.0
aF5.0
aF5.0
aF5.0
aF4.0
aF4.0
aF5.0
aF1.0
aF5.0
aF5.0
aF5.0
aF5.0
aF1.0
aF2.0
aF4.0
aF1.0
aF5.0
aF1.0
aF5.0
aF1.0
aF4.0
aF1.0
aF4.0
aF4.0
aF1.0
aF5.0
aF5.0
aF5.0
aF4.0
aF5.0
aF5.0
aF5.0
aF1.0
aF4.0
aF5.0
aF5.0
aF2.0
aF5.0
aF5.0
aF2.0
aF1.0
aF5.0
aF5.0
aF5.0
aF1.0
aF4.0
aF4.0
aF5.0
aF4.0
aF4.0
aF5.0
aF2.0
aF2.0
aF4.0
aF5.0
aF5.0
aF5.0
aF5.0
aF5.0
aF5.0
aF5.0
aF5.0
aF5.0
aF5.0
aF5.0
aF5.0
aF5.0
aF5.0
aF4.0
aF1.0
aF4.0
aF2.0
aF4.0
aF5.0
aF5.0
aF4.0
aF2.0
aF5.0
aF4.0
aF5.0
aF4.0
aF4.0
aF2.0
aF5.0
aF4.0
aF5.0
aF5.0
aF5.0
aF5.0
aF5.0
aF5.0
aF4.0
aF4.0
aF5.0
aF1.0
aF5.0
aF4.0
aF5.0
aF4.0
aF4.0
aF1.0
aF5.0
aF5.0
aF5.0
aF5.0
aF5.0
aF4.0
aF5.0
aF4.0
aF5.0
aF4.0
aF1.0
aF1.0
aF4.0
aF1.0
aF1.0
aF1.0
aF5.0
aF4.0
aF5.0
aF5.0
aF5.0
aF5.0
aF2.0
aF4.0
aF4.0
aF1.0
aF5.0
aF5.0
aF5.0
aF5.0
aF4.0
aF2.0
aF5.0
aF1.0
aF5.0
aF5.0
aF5.0
aF4.0
aF5.0
aF4.0
aF5.0
aF5.0
aF1.0
aF4.0
aF4.0
aF5.0
aF5.0
aF5.0
aF2.0
aF4.0
aF2.0
aF1.0
aF5.0
aF1.0
aF5.0
aF5.0
aF5.0
aF4.0
aF4.0
aF5.0
aF5.0
aF5.0
aF5.0
aF5.0
aF5.0
aF5.0
aF4.0
aF4.0
aF5.0
aF5.0
aF5.0
aF4.0
aF4.0
aF5.0
aF1.0
aF1.0
aF1.0
aF1.0
aF1.0
aF4.0
aF2.0
aF1.0
aF1.0
aF5.0
aF1.0
aF5.0
aF4.0
aF1.0
aF4.0
aF2.0
aF5.0
aF5.0
aF4.0
aF5.0
aF5.0
aF4.0
aF1.0
aF5.0
aF5.0
aF1.0
aF5.0
aF4.0
aF5.0
aF5.0
aF5.0
aF5.0
aF5.0
aF5.0
aF1.0
aF4.0
aF4.0
aF5.0
aF4.0
aF5.0
aF5.0
aF5.0
aF5.0
aF5.0
aF5.0
aF4.0
aF4.0
aF5.0
aF5.0
aF1.0
aF5.0
aF5.0
aF4.0
aF1.0
aF2.0
aF5.0
aF5.0
aF5.0
aF4.0
aF5.0
aF5.0
aF1.0
aF5.0
aF4.0
aF5.0
aF4.0
aF5.0
aF4.0
aF4.0
aF5.0
aF1.0
aF5.0
aF4.0
aF4.0
aF5.0
aF5.0
aF5.0
aF5.0
aF4.0
aF5.0
aF1.0
aF4.0
aF5.0
aF4.0
aF5.0
aF5.0
aF4.0
aF4.0
aF5.0
aF5.0
aF1.0
aF2.0
aF4.0
aF5.0
aF5.0
aF1.0
aF4.0
aF5.0
aF1.0
aF5.0
aF1.0
aF5.0
aF4.0
aF4.0
aF4.0
aF4.0
aF4.0
aF2.0
aF5.0
aF1.0
aF4.0
aF5.0
aF1.0
aF5.0
aF5.0
aF1.0
aF4.0
aF4.0
aF4.0
aF5.0
aF5.0
aF5.0
aF5.0
aF5.0
aF4.0
aF5.0
aF1.0
aF4.0
aF1.0
aF5.0
aF5.0
aF5.0
aF5.0
aF5.0
aF5.0
aF5.0
aF5.0
aF1.0
aF4.0
aF5.0
aF5.0
aF1.0
aF4.0
aF5.0
aF2.0
aF5.0
aF5.0
aF5.0
aF4.0
aF5.0
aF5.0
aF1.0
aF5.0
aF2.0
aF5.0
aF5.0
aF4.0
aF4.0
aF1.0
aF4.0
aF1.0
aF1.0
aF5.0
aF4.0
aF4.0
aF2.0
aF4.0
aF1.0
aF1.0
aF1.0
aF1.0
aF1.0
aF1.0
aF1.0
aF5.0
aF5.0
aF5.0
aF2.0
aF5.0
aF1.0
aF1.0
aF5.0
aF5.0
aF5.0
aF1.0
aF5.0
aF4.0
aF4.0
aF2.0
aF5.0
aF2.0
aF4.0
aF1.0
aF5.0
aF1.0
aF5.0
aF4.0
aF5.0
aF5.0
aF4.0
aF4.0
aF5.0
aF5.0
aF4.0
aF1.0
aF5.0
aF5.0
aF5.0
aF5.0
aF4.0
aF5.0
aF5.0
aF5.0
aF4.0
aF1.0
aF5.0
aF5.0
aF4.0
aF5.0
aF5.0
aF4.0
aF4.0
aF5.0
aF1.0
aF4.0
aF5.0
aF5.0
aF5.0
aF5.0
aF4.0
aF5.0
aF4.0
aF5.0
aF5.0
aF4.0
aF5.0
aF4.0
aF5.0
aF5.0
aF5.0
aF5.0
aF5.0
aF5.0
aF5.0
aF5.0
aF5.0
aF5.0
aF5.0
aF4.0
aF2.0
aF5.0
aF5.0
aF1.0
aF5.0
aF4.0
aF5.0
aF5.0
aF5.0
aF4.0
aF5.0
aF4.0
aF1.0
aF5.0
aF2.0
aF5.0
aF5.0
aF5.0
aF4.0
aF5.0
aF5.0
aF1.0
aF5.0
aF1.0
aF5.0
aF1.0
aF5.0
aF1.0
aF4.0
aF5.0
aF5.0
aF5.0
aF5.0
aF5.0
aF5.0
aF5.0
aF5.0
aF5.0
aF5.0
aF5.0
aF5.0
aF5.0
aF5.0
aF4.0
aF5.0
aF5.0
aF4.0
aF5.0
aF5.0
aF5.0
aF5.0
aF5.0
aF5.0
aF1.0
aF4.0
aF4.0
aF4.0
aF1.0
aF2.0
aF1.0
aF1.0
aF2.0
aF5.0
aF2.0
aF1.0
aF4.0
aF5.0
aF4.0
aF5.0
aF4.0
aF5.0
aF4.0
aF2.0
aF4.0
aF4.0
aF4.0
aF4.0
aF1.0
aF5.0
aF1.0
aF5.0
aF5.0
aF5.0
aF5.0
aF4.0
aF5.0
aF1.0
aF5.0
aF1.0
aF1.0
aF2.0
aF4.0
aF5.0
aF4.0
aF1.0
aF1.0
aF4.0
aF1.0
aF5.0
aF5.0
aF4.0
aF5.0
aF5.0
aF5.0
aF5.0
aF5.0
aF2.0
aF5.0
aF4.0
aF4.0
aF1.0
aF5.0
aF5.0
aF5.0
aF1.0
aF5.0
aF1.0
aF1.0
aF4.0
aF2.0
aF5.0
aF1.0
aF5.0
aF5.0
aF4.0
aF1.0
aF5.0
aF5.0
aF2.0
aF5.0
aF5.0
aF1.0
aF2.0
aF5.0
aF5.0
aF5.0
aF4.0
aF5.0
aF5.0
aF5.0
aF5.0
aF1.0
aF4.0
aF5.0
aF5.0
aF5.0
aF5.0
aF1.0
aF5.0
aF5.0
aF4.0
aF4.0
aF5.0
aF4.0
aF5.0
aF1.0
aF4.0
aF5.0
aF5.0
aF4.0
aF5.0
aF5.0
aF5.0
aF5.0
aF5.0
aF5.0
aF5.0
aF4.0
aF2.0
aF5.0
aF5.0
aF1.0
aF5.0
aF5.0
aF5.0
aF4.0
aF2.0
aF1.0
aF2.0
aF5.0
aF1.0
aF2.0
aF5.0
aF5.0
aF5.0
aF5.0
aF4.0
aF4.0
aF5.0
aF5.0
aF5.0
aF4.0
aF5.0
aF5.0
aF1.0
aF5.0
aF5.0
aF5.0
aF5.0
aF5.0
aF5.0
aF5.0
aF1.0
aF5.0
aF4.0
aF5.0
aF5.0
aF5.0
aF1.0
aF4.0
aF4.0
aF5.0
aF5.0
aF4.0
aF4.0
aF5.0
aF5.0
aF5.0
aF5.0
aF2.0
aF4.0
aF2.0
aF4.0
aF5.0
aF4.0
aF1.0
aF1.0
aF2.0
aF5.0
aF2.0
aF2.0
aF4.0
aF5.0
aF5.0
aF4.0
aF5.0
aF4.0
aF4.0
aF5.0
aF5.0
aF5.0
aF5.0
aF4.0
aF5.0
aF5.0
aF1.0
aF5.0
aF4.0
aF5.0
aF4.0
aF5.0
aF5.0
aF5.0
aF5.0
aF5.0
aF4.0
aF5.0
aF2.0
aF5.0
aF5.0
aF4.0
aF5.0
aF5.0
aF4.0
aF5.0
aF5.0
aF5.0
aF5.0
aF5.0
aF5.0
aF5.0
aF5.0
aF4.0
aF5.0
aF5.0
aF1.0
aF4.0
aF5.0
aF5.0
aF5.0
aF5.0
aF5.0
aF5.0
aF5.0
aF4.0
aF5.0
aF4.0
aF5.0
aF5.0
aF5.0
aF5.0
aF5.0
aF1.0
aF5.0
aF2.0
aF5.0
aF5.0
aF5.0
aF4.0
aF5.0
aF4.0
aF5.0
aF4.0
aF4.0
aF5.0
aF5.0
aF4.0
aF5.0
aF5.0
aF5.0
aF5.0
aF4.0
aF1.0
aF5.0
aF5.0
aF5.0
aF5.0
aF1.0
aF5.0
aF5.0
aF5.0
aF4.0
aF4.0
aF1.0
aF2.0
aF5.0
aF4.0
aF1.0
aF4.0
aF5.0
aF1.0
aF5.0
aF5.0
aF4.0
aF5.0
aF1.0
aF4.0
aF4.0
aF5.0
aF4.0
aF4.0
aF1.0
aF5.0
aF5.0
aF4.0
aF5.0
aF2.0
aF5.0
aF5.0
aF5.0
aF5.0
aF1.0
aF4.0
aF5.0
aF5.0
aF5.0
aF5.0
aF4.0
aF1.0
aF1.0
aF2.0
aF4.0
aF1.0
aF5.0
aF2.0
aF1.0
aF5.0
aF5.0
aF5.0
aF5.0
aF5.0
aF5.0
aF5.0
aF5.0
aF1.0
aF1.0
aF5.0
aF5.0
aF5.0
aF4.0
aF2.0
aF5.0
aF5.0
aF5.0
aF1.0
aF5.0
aF2.0
aF4.0
aF1.0
aF1.0
aF2.0
aF5.0
aF2.0
aF1.0
aF1.0
aF5.0
aF4.0
aF5.0
aF4.0
aF5.0
aF5.0
aF5.0
aF5.0
aF5.0
aF5.0
aF4.0
aF5.0
aF5.0
aF5.0
aF4.0
aF5.0
aF5.0
aF5.0
aF4.0
aF5.0
aF1.0
aF1.0
aF4.0
aF5.0
aF4.0
aF4.0
aF1.0
aF4.0
aF1.0
aF4.0
aF5.0
aF5.0
aF5.0
aF4.0
aF1.0
aF5.0
aF4.0
aF1.0
aF5.0
aF1.0
aF1.0
aF5.0
aF5.0
aF5.0
aF4.0
aF5.0
aF5.0
aF1.0
aF4.0
aF4.0
aF5.0
aF5.0
aF4.0
aF4.0
aF5.0
aF5.0
aF4.0
aF4.0
aF4.0
aF5.0
aF5.0
aF5.0
aF5.0
aF5.0
aF5.0
aF4.0
aF5.0
aF5.0
aF5.0
aF4.0
aF5.0
aF1.0
aF5.0
aF5.0
aF5.0
aF2.0
aF5.0
aF1.0
aF5.0
aF5.0
aF4.0
aF1.0
aF4.0
aF5.0
aF5.0
aF4.0
aF5.0
aF5.0
aF5.0
aF5.0
aF1.0
aF5.0
aF5.0
aF4.0
aF5.0
aF5.0
aF1.0
aF4.0
aF4.0
aF5.0
aF5.0
aF1.0
aF4.0
aF5.0
aF5.0
aF5.0
aF5.0
aF4.0
aF5.0
aF5.0
aF4.0
aF5.0
aF5.0
aF5.0
aF4.0
aF5.0
aF4.0
aF5.0
aF5.0
aF1.0
aF4.0
aF5.0
aF5.0
aF1.0
aF5.0
aF5.0
aF5.0
aF5.0
aF5.0
aF5.0
aF2.0
aF5.0
aF1.0
aF5.0
aF4.0
aF4.0
aF1.0
aF4.0
aF5.0
aF5.0
aF5.0
aF5.0
aF2.0
aF5.0
aF5.0
aF5.0
aF5.0
aF5.0
aF2.0
aF4.0
aF5.0
aF4.0
aF4.0
aF5.0
aF1.0
aF1.0
aF4.0
aF2.0
aF1.0
aF5.0
aF5.0
aF5.0
aF5.0
aF5.0
aF5.0
aF5.0
aF5.0
aF5.0
aF4.0
aF1.0
aF5.0
aF5.0
aF4.0
aF5.0
aF5.0
aF5.0
aF4.0
aF5.0
aF5.0
aF5.0
aF1.0
aF5.0
aF5.0
aF4.0
aF5.0
aF4.0
aF2.0
aF5.0
aF4.0
aF1.0
aF5.0
aF2.0
aF5.0
aF4.0
aF4.0
aF4.0
aF4.0
aF4.0
aF1.0
aF1.0
aF4.0
aF4.0
aF5.0
aF5.0
aF5.0
aF5.0
aF5.0
aF4.0
aF1.0
aF1.0
aF5.0
aF2.0
aF5.0
aF4.0
aF4.0
aF1.0
aF4.0
aF1.0
aF4.0
aF4.0
aF4.0
aF5.0
aF4.0
aF5.0
aF4.0
aF1.0
aF1.0
aF4.0
aF5.0
aF4.0
aF1.0
aF4.0
aF1.0
aF2.0
aF5.0
aF2.0
aF5.0
aF5.0
aF5.0
aF4.0
aF1.0
aF1.0
aF4.0
aF4.0
aF5.0
aF5.0
aF5.0
aF4.0
aF5.0
aF5.0
aF1.0
aF4.0
aF1.0
aF1.0
aF5.0
aF5.0
aF5.0
aF5.0
aF5.0
aF5.0
aF1.0
aF5.0
aF4.0
aF5.0
aF5.0
aF5.0
aF1.0
aF4.0
aF1.0
aF4.0
aF2.0
aF5.0
aF5.0
aF4.0
aF2.0
aF4.0
aF2.0
aF4.0
aF4.0
aF1.0
aF2.0
aF1.0
aF4.0
aF4.0
aF4.0
aF5.0
aF5.0
aF5.0
aF4.0
aF5.0
aF5.0
aF5.0
aF5.0
aF5.0
aF5.0
aF5.0
aF5.0
aF5.0
aF5.0
aF5.0
aF5.0
aF5.0
aF5.0
aF5.0
aF4.0
aF4.0
aF4.0
aF5.0
aF1.0
aF5.0
aF2.0
aF1.0
aF4.0
aF1.0
aF1.0
aF5.0
aF4.0
aF4.0
aF4.0
aF5.0
aF5.0
aF1.0
aF5.0
aF4.0
aF2.0
aF5.0
aF1.0
aF1.0
aF1.0
aF1.0
aF5.0
aF5.0
aF4.0
aF2.0
aF2.0
aF1.0
aF5.0
aF1.0
aF5.0
aF5.0
aF5.0
aF5.0
aF1.0
aF1.0
aF2.0
aF4.0
aF5.0
aF2.0
aF4.0
aF1.0
aF2.0
aF5.0
aF5.0
aF5.0
aF5.0
aF4.0
aF5.0
aF5.0
aF5.0
aF5.0
aF4.0
aF5.0
aF4.0
aF5.0
aF5.0
aF5.0
aF5.0
aF5.0
aF5.0
aF5.0
aF1.0
aF5.0
aF4.0
aF5.0
aF5.0
aF5.0
aF5.0
aF5.0
aF4.0
aF5.0
aF5.0
aF5.0
aF5.0
aF4.0
aF5.0
aF1.0
aF5.0
aF5.0
aF1.0
aF5.0
aF5.0
aF4.0
aF2.0
aF4.0
aF5.0
aF4.0
aF5.0
aF5.0
aF4.0
aF1.0
aF5.0
aF5.0
aF5.0
aF5.0
aF5.0
aF5.0
aF5.0
aF5.0
aF5.0
aF5.0
aF5.0
aF5.0
aF5.0
aF5.0
aF5.0
aF5.0
aF4.0
aF5.0
aF5.0
aF4.0
aF5.0
aF1.0
aF5.0
aF5.0
aF2.0
aF5.0
aF4.0
aF4.0
aF5.0
aF4.0
aF1.0
aF2.0
aF5.0
aF4.0
aF5.0
aF5.0
aF5.0
aF5.0
aF5.0
aF5.0
aF4.0
aF4.0
aF5.0
aF1.0
aF1.0
aF5.0
aF1.0
aF5.0
aF5.0
aF5.0
aF5.0
aF4.0
aF1.0
aF4.0
aF5.0
aF1.0
aF5.0
aF5.0
aF5.0
aF5.0
aF4.0
aF4.0
aF5.0
aF5.0
aF5.0
aF2.0
aF5.0
aF5.0
aF5.0
aF4.0
aF5.0
aF1.0
aF1.0
aF1.0
aF5.0
aF5.0
aF5.0
aF2.0
aF5.0
aF5.0
aF5.0
aF1.0
aF1.0
aF2.0
aF1.0
aF5.0
aF5.0
aF5.0
aF5.0
aF1.0
aF5.0
aF5.0
aF4.0
aF5.0
aF1.0
aF1.0
aF5.0
aF4.0
aF5.0
aF5.0
aF5.0
aF5.0
aF5.0
aF2.0
aF5.0
aF1.0
aF5.0
aF5.0
aF5.0
aF5.0
aF4.0
aF5.0
aF5.0
aF5.0
aF5.0
aF5.0
aF5.0
aF5.0
aF5.0
aF5.0
aF2.0
aF5.0
aF5.0
aF4.0
aF5.0
aF5.0
aF1.0
aF1.0
aF4.0
aF1.0
aF1.0
aF4.0
aF4.0
aF4.0
aF4.0
aF5.0
aF5.0
aF5.0
aF5.0
aF5.0
aF5.0
aF5.0
aF5.0
aF5.0
aF5.0
aF5.0
aF4.0
aF5.0
aF5.0
aF5.0
aF5.0
aF5.0
aF5.0
aF5.0
aF5.0
aF5.0
aF5.0
aF4.0
aF5.0
aF5.0
aF5.0
aF5.0
aF2.0
aF4.0
aF5.0
aF5.0
aF5.0
aF1.0
aF5.0
aF5.0
aF1.0
aF1.0
aF4.0
aF4.0
aF2.0
aF5.0
aF5.0
aF5.0
aF5.0
aF2.0
aF5.0
aF5.0
aF5.0
aF4.0
aF5.0
aF5.0
aF5.0
aF4.0
aF5.0
aF5.0
aF5.0
aF5.0
aF5.0
aF5.0
aF5.0
aF5.0
aF5.0
aF4.0
aF5.0
aF4.0
aF4.0
aF5.0
aF1.0
aF5.0
aF5.0
aF2.0
aF5.0
aF1.0
aF5.0
aF2.0
aF4.0
aF5.0
aF5.0
aF4.0
aF5.0
aF5.0
aF4.0
aF4.0
aF5.0
aF1.0
aF5.0
aF5.0
aF5.0
aF5.0
aF1.0
aF1.0
aF5.0
aF5.0
aF1.0
aF4.0
aF1.0
aF4.0
aF5.0
aF5.0
aF5.0
aF4.0
aF5.0
aF4.0
aF5.0
aF5.0
aF5.0
aF5.0
aF2.0
aF5.0
aF5.0
aF2.0
aF1.0
aF5.0
aF5.0
aF5.0
aF1.0
aF4.0
aF4.0
aF5.0
aF2.0
aF4.0
aF5.0
aF1.0
aF2.0
aF2.0
aF4.0
aF4.0
aF5.0
aF1.0
aF5.0
aF5.0
aF5.0
aF5.0
aF5.0
aF5.0
aF5.0
aF5.0
aF5.0
aF5.0
aF5.0
aF5.0
aF5.0
aF4.0
aF1.0
aF5.0
aF5.0
aF1.0
aF4.0
aF5.0
aF4.0
aF1.0
aF4.0
aF4.0
aF5.0
aF5.0
aF4.0
aF1.0
aF1.0
aF2.0
aF5.0
aF4.0
aF5.0
aF5.0
aF5.0
aF4.0
aF5.0
aF4.0
aF1.0
aF4.0
aF2.0
aF4.0
aF4.0
aF4.0
aF5.0
aF4.0
aF4.0
aF5.0
aF4.0
aF4.0
aF2.0
aF5.0
aF5.0
aF4.0
aF5.0
aF1.0
aF5.0
aF5.0
aF5.0
aF5.0
aF5.0
aF5.0
aF4.0
aF5.0
aF1.0
aF5.0
aF5.0
aF4.0
aF4.0
aF1.0
aF5.0
aF5.0
aF5.0
aF5.0
aF5.0
aF4.0
aF5.0
aF4.0
aF5.0
aF4.0
aF1.0
aF1.0
aF4.0
aF1.0
aF1.0
aF1.0
aF5.0
aF4.0
aF5.0
aF5.0
aF5.0
aF5.0
aF2.0
aF4.0
aF1.0
aF5.0
aF5.0
aF1.0
aF5.0
aF5.0
aF4.0
aF2.0
aF5.0
aF1.0
aF5.0
aF5.0
aF5.0
aF4.0
aF5.0
aF4.0
aF5.0
aF5.0
aF1.0
aF4.0
aF4.0
aF5.0
aF2.0
aF4.0
aF2.0
aF1.0
aF5.0
aF1.0
aF5.0
aF1.0
aF1.0
aF4.0
aF5.0
aF5.0
aF4.0
aF4.0
aF5.0
aF5.0
aF5.0
aF5.0
aF5.0
aF5.0
aF4.0
aF4.0
aF5.0
aF5.0
aF5.0
aF4.0
aF4.0
aF5.0
aF1.0
aF1.0
aF1.0
aF1.0
aF1.0
aF4.0
aF2.0
aF5.0
aF5.0
aF4.0
aF4.0
aF2.0
aF5.0
aF4.0
aF5.0
aF5.0
aF4.0
aF1.0
aF5.0
aF5.0
aF1.0
aF5.0
aF4.0
aF5.0
aF5.0
aF5.0
aF5.0
aF5.0
aF4.0
aF5.0
aF4.0
aF5.0
aF2.0
aF5.0
aF4.0
aF5.0
aF5.0
aF5.0
aF5.0
aF4.0
aF4.0
aF2.0
aF5.0
aF5.0
aF2.0
aF5.0
aF4.0
aF5.0
aF4.0
aF5.0
aF5.0
aF5.0
aF5.0
aF5.0
aF4.0
aF4.0
aF5.0
aF5.0
aF1.0
aF5.0
aF1.0
aF5.0
aF5.0
aF2.0
aF5.0
aF5.0
aF1.0
aF4.0
aF2.0
aF4.0
aF5.0
aF5.0
aF5.0
aF4.0
aF5.0
aF5.0
aF1.0
aF5.0
aF5.0
aF4.0
aF1.0
aF2.0
aF5.0
aF5.0
aF5.0
aF4.0
aF5.0
aF5.0
aF4.0
aF4.0
aF5.0
aF1.0
aF5.0
aF4.0
aF4.0
aF5.0
aF5.0
aF5.0
aF5.0
aF1.0
aF4.0
aF5.0
aF5.0
aF4.0
aF5.0
aF5.0
aF2.0
aF5.0
aF4.0
aF4.0
aF1.0
aF1.0
aF5.0
aF1.0
aF4.0
aF5.0
aF5.0
aF1.0
aF2.0
aF5.0
aF5.0
aF4.0
aF4.0
aF1.0
aF5.0
aF5.0
aF2.0
aF4.0
aF1.0
aF5.0
aF5.0
aF1.0
aF4.0
aF5.0
aF5.0
aF1.0
aF5.0
aF4.0
aF4.0
aF4.0
aF4.0
aF2.0
aF4.0
aF5.0
aF1.0
aF4.0
aF5.0
aF1.0
aF5.0
aF5.0
aF1.0
aF4.0
aF4.0
aF4.0
aF5.0
aF5.0
aF5.0
aF5.0
aF4.0
aF5.0
aF5.0
aF1.0
aF5.0
aF4.0
aF5.0
aF4.0
aF5.0
aF5.0
aF1.0
aF4.0
aF5.0
aF5.0
aF5.0
aF5.0
aF5.0
aF5.0
aF5.0
aF5.0
aF5.0
aF1.0
aF4.0
aF4.0
aF5.0
aF4.0
aF2.0
aF4.0
aF4.0
aF1.0
aF1.0
aF4.0
aF5.0
aF5.0
aF1.0
aF4.0
aF5.0
aF2.0
aF5.0
aF5.0
aF4.0
aF5.0
aF5.0
aF1.0
aF5.0
aF4.0
aF1.0
aF5.0
aF4.0
aF5.0
aF5.0
aF1.0
aF5.0
aF2.0
aF5.0
aF5.0
aF4.0
aF4.0
aF1.0
aF4.0
aF1.0
aF1.0
aF5.0
aF4.0
aF2.0
aF4.0
aF2.0
aF4.0
aF1.0
aF1.0
aF5.0
aF5.0
aF5.0
aF2.0
aF5.0
aF1.0
aF5.0
aF5.0
aF5.0
aF1.0
aF1.0
aF5.0
aF4.0
aF2.0
aF2.0
aF5.0
aF1.0
aF5.0
aF2.0
aF5.0
aF1.0
aF5.0
aF2.0
aF5.0
aF4.0
aF1.0
aF5.0
aF1.0
aF5.0
aF4.0
aF5.0
aF5.0
aF1.0
aF4.0
aF5.0
aF5.0
aF4.0
aF1.0
aF1.0
aF5.0
aF5.0
aF5.0
aF5.0
aF5.0
aF5.0
aF5.0
aF5.0
aF4.0
aF1.0
aF5.0
aF5.0
aF4.0
aF5.0
aF4.0
aF5.0
aF1.0
aF4.0
aF5.0
aF1.0
aF5.0
aF5.0
aF4.0
aF5.0
aF4.0
aF5.0
aF4.0
aF5.0
aF4.0
aF5.0
aF4.0
aF5.0
aF1.0
aF1.0
aF5.0
aF1.0
aF5.0
aF1.0
aF1.0
aF4.0
aF5.0
aF5.0
aF5.0
aF5.0
aF5.0
aF5.0
aF5.0
aF5.0
aF5.0
aF5.0
aF5.0
aF1.0
aF5.0
aF4.0
aF5.0
aF5.0
aF1.0
aF5.0
aF4.0
aF5.0
aF5.0
aF5.0
aF2.0
aF2.0
aF5.0
aF5.0
aF4.0
aF5.0
aF4.0
aF1.0
aF5.0
aF2.0
aF5.0
aF5.0
aF5.0
aF5.0
aF4.0
aF5.0
aF2.0
aF5.0
aF5.0
aF5.0
aF1.0
aF5.0
aF5.0
aF1.0
aF5.0
aF1.0
aF4.0
aF5.0
aF5.0
aF5.0
aF5.0
aF5.0
aF5.0
aF5.0
aF5.0
aF5.0
aF5.0
aF5.0
aF5.0
aF5.0
aF5.0
aF5.0
aF4.0
aF5.0
aF5.0
aF5.0
aF5.0
aF1.0
aF5.0
aF1.0
aF4.0
aF4.0
aF2.0
aF1.0
aF1.0
aF2.0
aF5.0
aF2.0
aF1.0
aF2.0
aF1.0
aF1.0
aF5.0
aF1.0
aF2.0
aF4.0
aF4.0
aF5.0
aF4.0
aF5.0
aF4.0
aF5.0
aF4.0
aF2.0
aF4.0
aF4.0
aF4.0
aF4.0
aF1.0
aF5.0
aF5.0
aF5.0
aF5.0
aF5.0
aF1.0
aF4.0
aF5.0
aF5.0
aF1.0
aF1.0
aF2.0
aF5.0
aF5.0
aF5.0
aF1.0
aF5.0
aF4.0
aF5.0
aF4.0
aF5.0
aF1.0
aF2.0
aF4.0
aF5.0
aF4.0
aF1.0
aF1.0
aF2.0
aF4.0
aF5.0
aF5.0
aF4.0
aF5.0
aF2.0
aF5.0
aF5.0
aF5.0
aF5.0
aF5.0
aF5.0
aF4.0
aF4.0
aF1.0
aF5.0
aF5.0
aF5.0
aF1.0
aF5.0
aF1.0
aF1.0
aF4.0
aF2.0
aF5.0
aF5.0
aF4.0
aF1.0
aF1.0
aF1.0
aF1.0
aF5.0
aF5.0
aF2.0
aF5.0
aF5.0
aF5.0
aF1.0
aF2.0
aF5.0
aF5.0
aF5.0
aF5.0
aF4.0
aF5.0
aF5.0
aF5.0
aF5.0
aF1.0
aF4.0
aF5.0
aF5.0
aF5.0
aF5.0
aF5.0
aF1.0
aF5.0
aF4.0
aF4.0
aF5.0
aF4.0
aF5.0
aF1.0
aF1.0
aF4.0
aF5.0
aF5.0
aF4.0
aF5.0
aF5.0
aF5.0
aF5.0
aF5.0
aF5.0
aF5.0
aF4.0
aF2.0
aF5.0
aF5.0
aF5.0
aF5.0
aF5.0
aF5.0
aF4.0
aF2.0
aF5.0
aF1.0
aF2.0
aF5.0
aF5.0
aF5.0
aF5.0
aF4.0
aF4.0
aF5.0
aF5.0
aF5.0
aF4.0
aF5.0
aF5.0
aF1.0
aF2.0
aF4.0
aF1.0
aF1.0
aF5.0
aF5.0
aF5.0
aF5.0
aF5.0
aF5.0
aF5.0
aF1.0
aF5.0
aF4.0
aF1.0
aF1.0
aF5.0
aF5.0
aF5.0
aF1.0
aF1.0
aF4.0
aF5.0
aF5.0
aF4.0
aF4.0
aF5.0
aF5.0
aF5.0
aF5.0
aF4.0
aF2.0
aF4.0
aF5.0
aF4.0
aF1.0
aF2.0
aF5.0
aF2.0
aF2.0
aF4.0
aF5.0
aF4.0
aF5.0
aF4.0
aF4.0
aF5.0
aF5.0
aF5.0
aF5.0
aF4.0
aF5.0
aF5.0
aF5.0
aF5.0
aF4.0
aF5.0
aF5.0
aF5.0
aF5.0
aF5.0
aF5.0
aF4.0
aF5.0
aF2.0
aF5.0
aF5.0
aF5.0
aF4.0
aF5.0
aF5.0
aF1.0
aF5.0
aF5.0
aF5.0
aF5.0
aF4.0
aF5.0
aF5.0
aF4.0
aF5.0
aF4.0
aF5.0
aF4.0
aF2.0
aF5.0
aF1.0
aF5.0
aF4.0
aF4.0
aF5.0
aF5.0
aF5.0
aF4.0
aF5.0
aF4.0
aF5.0
aF5.0
aF5.0
aF4.0
aF5.0
aF5.0
aF4.0
aF4.0
aF1.0
aF5.0
aF1.0
aF1.0
aF5.0
aF5.0
aF5.0
aF5.0
aF5.0
aF1.0
aF4.0
aF5.0
aF5.0
aF5.0
aF4.0
aF4.0
aF5.0
aF5.0
aF5.0
aF5.0
aF5.0
aF1.0
aF2.0
aF1.0
aF1.0
aF1.0
aF1.0
aF5.0
aF1.0
aF5.0
aF1.0
aF1.0
aF1.0
aF5.0
aF4.0
aF5.0
aF5.0
aF5.0
aF5.0
aF5.0
aF4.0
aF5.0
aF5.0
aF4.0
aF5.0
aF5.0
aF1.0
aF5.0
aF1.0
aF5.0
aF4.0
aF5.0
aF4.0
aF5.0
aF5.0
aF4.0
aF1.0
aF5.0
aF5.0
aF5.0
aF1.0
aF5.0
aF5.0
aF2.0
aF4.0
aF5.0
aF5.0
aF5.0
aF1.0
aF5.0
aF5.0
aF5.0
aF4.0
aF5.0
aF1.0
aF1.0
aF1.0
aF1.0
aF5.0
aF5.0
aF4.0
aF4.0
aF5.0
aF4.0
aF4.0
aF1.0
aF1.0
aF4.0
aF5.0
aF5.0
aF5.0
aF5.0
aF5.0
aF2.0
aF5.0
aF5.0
aF5.0
aF1.0
aF2.0
aF1.0
aF5.0
aF5.0
aF5.0
aF4.0
aF5.0
aF5.0
aF5.0
aF5.0
aF4.0
aF5.0
aF4.0
aF1.0
aF5.0
aF5.0
aF5.0
aF5.0
aF5.0
aF5.0
aF5.0
aF1.0
aF5.0
aF5.0
aF4.0
aF5.0
aF5.0
aF4.0
aF5.0
aF4.0
aF5.0
aF5.0
aF5.0
aF1.0
aF5.0
aF4.0
aF5.0
aF5.0
aF5.0
aF4.0
aF5.0
aF4.0
aF5.0
aF4.0
aF1.0
aF5.0
aF4.0
aF5.0
aF5.0
aF5.0
aF5.0
aF4.0
aF5.0
aF5.0
aF5.0
aF5.0
aF5.0
aF5.0
aF4.0
aF5.0
aF5.0
aF5.0
aF5.0
aF4.0
aF4.0
aF5.0
aF4.0
aF4.0
aF1.0
aF5.0
aF5.0
aF4.0
aF5.0
aF4.0
aF5.0
aF5.0
aF4.0
aF2.0
aF5.0
aF4.0
aF5.0
aF5.0
aF5.0
aF4.0
aF5.0
aF5.0
aF5.0
aF5.0
aF5.0
aF5.0
aF4.0
aF4.0
aF2.0
aF4.0
aF4.0
aF4.0
aF5.0
aF5.0
aF5.0
aF4.0
aF4.0
aF5.0
aF2.0
aF4.0
aF5.0
aF4.0
aF5.0
aF5.0
aF2.0
aF4.0
aF5.0
aF4.0
aF4.0
aF5.0
aF4.0
aF4.0
aF5.0
aF5.0
aF5.0
aF4.0
aF5.0
aF5.0
aF2.0
aF5.0
aF4.0
aF4.0
aF4.0
aF4.0
aF5.0
aF1.0
aF5.0
aF5.0
aF5.0
aF2.0
aF5.0
aF4.0
aF5.0
aF5.0
aF5.0
aF5.0
aF4.0
aF5.0
aF1.0
aF1.0
aF5.0
aF5.0
aF5.0
aF5.0
aF4.0
aF5.0
aF5.0
aF5.0
aF5.0
aF1.0
aF5.0
aF2.0
aF4.0
aF1.0
aF5.0
aF1.0
aF5.0
aF5.0
aF4.0
aF5.0
aF4.0
aF2.0
aF5.0
aF5.0
aF5.0
aF5.0
aF1.0
aF1.0
aF5.0
aF4.0
aF4.0
aF5.0
aF5.0
aF2.0
aF5.0
aF5.0
aF4.0
aF4.0
aF4.0
aF4.0
aF1.0
aF1.0
aF1.0
aF5.0
aF5.0
aF4.0
aF4.0
aF5.0
aF1.0
aF1.0
aF2.0
aF5.0
aF4.0
aF1.0
aF1.0
aF1.0
aF1.0
aF5.0
aF5.0
aF5.0
aF4.0
aF5.0
aF5.0
aF4.0
aF4.0
aF5.0
aF5.0
aF4.0
aF1.0
aF5.0
aF5.0
aF4.0
aF5.0
aF4.0
aF4.0
aF5.0
aF5.0
aF5.0
aF5.0
aF5.0
aF5.0
aF5.0
aF5.0
aF5.0
aF5.0
aF5.0
aF5.0
aF4.0
aF4.0
aF1.0
aF1.0
aF4.0
aF4.0
aF4.0
aF4.0
aF5.0
aF5.0
aF5.0
aF5.0
aF2.0
aF5.0
aF1.0
aF5.0
aF5.0
aF5.0
aF5.0
aF5.0
aF5.0
aF5.0
aF1.0
aF1.0
aF5.0
aF1.0
aF5.0
aF5.0
aF1.0
aF5.0
aF5.0
aF5.0
aF5.0
aF5.0
aF1.0
aF5.0
aF4.0
aF5.0
aF5.0
aF4.0
aF1.0
aF5.0
aF5.0
aF2.0
aF4.0
aF4.0
aF5.0
aF4.0
aF4.0
aF5.0
aF5.0
aF5.0
aF5.0
aF5.0
aF5.0
aF5.0
aF5.0
aF5.0
aF5.0
aF2.0
aF5.0
aF5.0
aF2.0
aF5.0
aF5.0
aF5.0
aF1.0
aF1.0
aF5.0
aF5.0
aF1.0
aF1.0
aF5.0
aF1.0
aF2.0
aF4.0
aF5.0
aF1.0
aF2.0
aF5.0
aF5.0
aF5.0
aF4.0
aF4.0
aF5.0
aF1.0
aF4.0
aF4.0
aF4.0
aF4.0
aF4.0
aF5.0
aF5.0
aF5.0
aF5.0
aF1.0
aF1.0
aF4.0
aF1.0
aF4.0
aF2.0
aF5.0
aF5.0
aF5.0
aF5.0
aF5.0
aF5.0
aF4.0
aF5.0
aF5.0
aF5.0
aF1.0
aF5.0
aF5.0
aF2.0
aF4.0
aF1.0
aF5.0
aF5.0
aF4.0
aF4.0
aF4.0
aF4.0
aF5.0
aF5.0
aF5.0
aF5.0
aF4.0
aF5.0
aF4.0
aF4.0
aF4.0
aF5.0
aF4.0
aF4.0
aF4.0
aF5.0
aF5.0
aF5.0
aF5.0
aF5.0
aF4.0
aF5.0
aF5.0
aF4.0
aF4.0
aF5.0
aF5.0
aF5.0
aF4.0
aF1.0
aF5.0
aF1.0
aF1.0
aF4.0
aF1.0
aF1.0
aF5.0
aF1.0
aF5.0
aF1.0
aF5.0
aF5.0
aF5.0
aF5.0
aF5.0
aF5.0
aF5.0
aF5.0
aF1.0
aF4.0
aF5.0
aF5.0
aF5.0
aF1.0
aF5.0
aF5.0
aF5.0
aF1.0
aF4.0
aF5.0
aF1.0
aF1.0
aF5.0
aF5.0
aF5.0
aF5.0
aF5.0
aF5.0
aF5.0
aF4.0
aF1.0
aF4.0
aF5.0
aF5.0
aF5.0
aF1.0
aF5.0
aF4.0
aF4.0
aF5.0
aF5.0
aF5.0
aF4.0
aF5.0
aF4.0
aF5.0
aF4.0
aF5.0
aF5.0
aF1.0
aF5.0
aF1.0
aF1.0
aF4.0
aF1.0
aF1.0
aF5.0
aF5.0
aF5.0
aF1.0
aF4.0
aF2.0
aF4.0
aF1.0
aF1.0
aF5.0
aF2.0
aF5.0
aF4.0
aF5.0
aF5.0
aF2.0
aF5.0
aF2.0
aF4.0
aF5.0
aF5.0
aF5.0
aF4.0
aF5.0
aF4.0
aF2.0
aF2.0
aF4.0
aF4.0
aF1.0
aF5.0
aF5.0
aF5.0
aF5.0
aF1.0
aF5.0
aF1.0
aF5.0
aF5.0
aF5.0
aF5.0
aF4.0
aF5.0
aF4.0
aF5.0
aF4.0
aF5.0
aF5.0
aF5.0
aF5.0
aF4.0
aF5.0
aF5.0
aF5.0
aF2.0
aF5.0
aF4.0
aF5.0
aF5.0
aF5.0
aF1.0
aF1.0
aF5.0
aF1.0
aF1.0
aF2.0
aF5.0
aF4.0
aF2.0
aF1.0
aF2.0
aF4.0
aF5.0
aF1.0
aF4.0
aF5.0
aF5.0
aF4.0
aF5.0
aF5.0
aF5.0
aF5.0
aF4.0
aF5.0
aF4.0
aF5.0
aF5.0
aF5.0
aF5.0
aF4.0
aF5.0
aF5.0
aF4.0
aF5.0
aF5.0
aF5.0
aF5.0
aF4.0
aF2.0
aF2.0
aF5.0
aF4.0
aF5.0
aF4.0
aF1.0
aF4.0
aF4.0
aF4.0
aF5.0
aF1.0
aF2.0
aF1.0
aF1.0
aF4.0
aF1.0
aF1.0
aF1.0
aF5.0
aF5.0
aF5.0
aF4.0
aF5.0
aF5.0
aF5.0
aF5.0
aF4.0
aF5.0
aF5.0
aF5.0
aF5.0
aF5.0
aF5.0
aF5.0
aF5.0
aF5.0
aF4.0
aF4.0
aF2.0
aF1.0
aF4.0
aF4.0
aF5.0
aF2.0
aF4.0
aF4.0
aF5.0
aF5.0
aF5.0
aF2.0
aF4.0
aF5.0
aF5.0
aF4.0
aF5.0
aF1.0
aF4.0
aF1.0
aF5.0
aF5.0
aF5.0
aF4.0
aF5.0
aF5.0
aF5.0
aF5.0
aF4.0
aF5.0
aF5.0
aF1.0
aF2.0
aF2.0
aF4.0
aF5.0
aF5.0
aF4.0
aF4.0
aF5.0
aF5.0
aF4.0
aF5.0
aF5.0
aF5.0
aF4.0
aF5.0
aF5.0
aF5.0
aF5.0
aF5.0
aF5.0
aF1.0
aF5.0
aF5.0
aF4.0
aF4.0
aF4.0
aF4.0
aF4.0
aF5.0
aF5.0
aF4.0
aF5.0
aF5.0
aF5.0
aF5.0
aF4.0
aF5.0
aF4.0
aF5.0
aF4.0
aF4.0
aF4.0
aF5.0
aF4.0
aF5.0
aF5.0
aF4.0
aF1.0
aF4.0
aF5.0
aF5.0
aF2.0
aF5.0
aF5.0
aF4.0
aF2.0
aF5.0
aF5.0
aF1.0
aF5.0
aF5.0
aF5.0
aF1.0
aF1.0
aF5.0
aF5.0
aF5.0
aF5.0
aF5.0
aF1.0
aF2.0
aF4.0
aF5.0
aF5.0
aF2.0
aF4.0
aF4.0
aF5.0
aF5.0
aF5.0
aF4.0
aF5.0
aF5.0
aF4.0
aF5.0
aF5.0
aF5.0
aF5.0
aF5.0
aF5.0
aF5.0
aF5.0
aF4.0
aF4.0
aF5.0
aF5.0
aF5.0
aF5.0
aF5.0
aF5.0
aF2.0
aF5.0
aF5.0
aF4.0
aF5.0
aF5.0
aF2.0
aF4.0
aF4.0
aF4.0
aF4.0
aF4.0
aF4.0
aF4.0
aF5.0
aF4.0
aF4.0
aF4.0
aF5.0
aF4.0
aF5.0
aF4.0
aF5.0
aF5.0
aF5.0
aF4.0
aF4.0
aF5.0
aF5.0
aF5.0
aF5.0
aF5.0
aF5.0
aF2.0
aF5.0
aF4.0
aF4.0
aF5.0
aF4.0
aF4.0
aF2.0
aF1.0
aF2.0
aF4.0
aF5.0
aF5.0
aF5.0
aF4.0
aF5.0
aF5.0
aF5.0
aF4.0
aF5.0
aF4.0
aF4.0
aF5.0
aF5.0
aF5.0
aF4.0
aF5.0
aF5.0
aF5.0
aF5.0
aF2.0
aF4.0
aF5.0
aF5.0
aF5.0
aF5.0
aF5.0
aF5.0
aF5.0
aF4.0
aF4.0
aF5.0
aF5.0
aF5.0
aF4.0
aF5.0
aF4.0
aF4.0
aF2.0
aF1.0
aF1.0
aF4.0
aF4.0
aF1.0
aF2.0
aF4.0
aF5.0
aF5.0
aF5.0
aF4.0
aF1.0
aF5.0
aF5.0
aF4.0
aF4.0
aF5.0
aF5.0
aF4.0
aF1.0
aF2.0
aF1.0
aF4.0
aF1.0
aF4.0
aF1.0
aF5.0
aF5.0
aF5.0
aF5.0
aF4.0
aF4.0
aF5.0
aF5.0
aF4.0
aF5.0
aF5.0
aF2.0
aF5.0
aF5.0
aF5.0
aF2.0
aF5.0
aF1.0
aF4.0
aF4.0
aF4.0
aF4.0
aF2.0
aF4.0
aF4.0
aF4.0
aF1.0
aF5.0
aF4.0
aF5.0
aF5.0
aF5.0
aF5.0
aF4.0
aF4.0
aF5.0
aF5.0
aF5.0
aF4.0
aF1.0
aF4.0
aF5.0
aF4.0
aF5.0
aF5.0
aF4.0
aF4.0
aF4.0
aF5.0
aF2.0
aF4.0
aF2.0
aF2.0
aF5.0
aF5.0
aF5.0
aF2.0
aF5.0
aF4.0
aF4.0
aF5.0
aF1.0
aF2.0
aF1.0
aF5.0
aF5.0
aF4.0
aF5.0
aF4.0
aF5.0
aF5.0
aF5.0
aF1.0
aF5.0
aF5.0
aF1.0
aF5.0
aF5.0
aF5.0
aF4.0
aF5.0
aF4.0
aF4.0
aF5.0
aF4.0
aF5.0
aF4.0
aF5.0
aF5.0
aF4.0
aF4.0
aF4.0
aF5.0
aF4.0
aF1.0
aF4.0
aF1.0
aF5.0
aF4.0
aF5.0
aF1.0
aF4.0
aF5.0
aF4.0
aF5.0
aF1.0
aF1.0
aF1.0
aF4.0
aF5.0
aF5.0
aF5.0
aF4.0
aF5.0
aF1.0
aF1.0
aF5.0
aF5.0
aF2.0
aF2.0
aF1.0
aF5.0
aF1.0
aF1.0
aF1.0
aF4.0
aF1.0
aF5.0
aF4.0
aF2.0
aF4.0
aF5.0
aF5.0
aF4.0
aF5.0
aF5.0
aF4.0
aF4.0
aF5.0
aF4.0
aF4.0
aF5.0
aF2.0
aF4.0
aF4.0
aF2.0
aF2.0
aF5.0
aF4.0
aF2.0
aF1.0
aF4.0
aF4.0
aF5.0
aF5.0
aF5.0
aF5.0
aF5.0
aF5.0
aF1.0
aF5.0
aF1.0
aF1.0
aF5.0
aF1.0
aF5.0
aF1.0
aF5.0
aF4.0
aF5.0
aF4.0
aF4.0
aF4.0
aF5.0
aF4.0
aF4.0
aF5.0
aF1.0
aF4.0
aF5.0
aF4.0
aF4.0
aF2.0
aF4.0
aF4.0
aF5.0
aF5.0
aF4.0
aF5.0
aF4.0
aF5.0
aF5.0
aF1.0
aF4.0
aF1.0
aF4.0
aF2.0
aF2.0
aF1.0
aF5.0
aF5.0
aF5.0
aF2.0
aF5.0
aF5.0
aF4.0
aF4.0
aF1.0
aF4.0
aF5.0
aF5.0
aF5.0
aF5.0
aF4.0
aF5.0
aF5.0
aF4.0
aF4.0
aF5.0
aF5.0
aF5.0
aF5.0
aF1.0
aF5.0
aF5.0
aF2.0
aF5.0
aF5.0
aF4.0
aF5.0
aF5.0
aF5.0
aF5.0
aF4.0
aF5.0
aF5.0
aF4.0
aF5.0
aF4.0
aF5.0
aF4.0
aF2.0
aF4.0
aF4.0
aF4.0
aF4.0
aF2.0
aF4.0
aF4.0
aF1.0
aF5.0
aF1.0
aF5.0
aF5.0
aF4.0
aF4.0
aF5.0
aF5.0
aF5.0
aF5.0
aF5.0
aF5.0
aF5.0
aF4.0
aF5.0
aF5.0
aF5.0
aF5.0
aF5.0
aF5.0
aF5.0
aF1.0
aF4.0
aF5.0
aF2.0
aF4.0
aF2.0
aF5.0
aF4.0
aF4.0
aF5.0
aF1.0
aF4.0
aF4.0
aF5.0
aF4.0
aF5.0
aF4.0
aF5.0
aF2.0
aF5.0
aF5.0
aF5.0
aF2.0
aF5.0
aF1.0
aF4.0
aF1.0
aF5.0
aF5.0
aF4.0
aF5.0
aF4.0
aF5.0
aF5.0
aF5.0
aF5.0
aF5.0
aF4.0
aF5.0
aF4.0
aF5.0
aF4.0
aF4.0
aF5.0
aF5.0
aF5.0
aF2.0
aF2.0
aF5.0
aF5.0
aF5.0
aF5.0
aF5.0
aF5.0
aF5.0
aF5.0
aF5.0
aF4.0
aF5.0
aF4.0
aF5.0
aF5.0
aF5.0
aF5.0
aF4.0
aF5.0
aF5.0
aF5.0
aF5.0
aF5.0
aF1.0
aF5.0
aF5.0
aF4.0
aF5.0
aF5.0
aF5.0
aF5.0
aF2.0
aF1.0
aF5.0
aF1.0
aF1.0
aF1.0
aF2.0
aF1.0
aF5.0
aF1.0
aF1.0
aF5.0
aF5.0
aF5.0
aF4.0
aF5.0
aF5.0
aF4.0
aF5.0
aF5.0
aF5.0
aF5.0
aF5.0
aF2.0
aF2.0
aF5.0
aF2.0
aF2.0
aF4.0
aF5.0
aF5.0
aF4.0
aF5.0
aF1.0
aF5.0
aF5.0
aF5.0
aF5.0
aF4.0
aF5.0
aF5.0
aF5.0
aF2.0
aF5.0
aF4.0
aF5.0
aF4.0
aF4.0
aF5.0
aF5.0
aF1.0
aF1.0
aF5.0
aF1.0
aF1.0
aF1.0
aF5.0
aF1.0
aF1.0
aF5.0
aF4.0
aF4.0
aF5.0
aF5.0
aF5.0
aF5.0
aF5.0
aF5.0
aF5.0
aF4.0
aF5.0
aF5.0
aF5.0
aF5.0
aF4.0
aF5.0
aF4.0
aF5.0
aF5.0
aF5.0
aF5.0
aF5.0
aF5.0
aF5.0
aF5.0
aF5.0
aF4.0
aF5.0
aF4.0
aF5.0
aF4.0
aF5.0
aF5.0
aF1.0
aF5.0
aF5.0
aF1.0
aF5.0
aF1.0
aF5.0
aF5.0
aF5.0
aF5.0
aF5.0
aF1.0
aF4.0
aF5.0
aF1.0
aF1.0
aF4.0
aF2.0
aF2.0
aF4.0
aF1.0
aF5.0
aF5.0
aF5.0
aF4.0
aF5.0
aF5.0
aF5.0
aF2.0
aF5.0
aF4.0
aF5.0
aF5.0
aF5.0
aF1.0
aF2.0
aF1.0
aF4.0
aF1.0
aF4.0
aF5.0
aF5.0
aF1.0
aF5.0
aF5.0
aF5.0
aF4.0
aF2.0
aF5.0
aF1.0
aF4.0
aF5.0
aF2.0
aF5.0
aF2.0
aF4.0
aF1.0
aF1.0
aF1.0
aF2.0
aF2.0
aF5.0
aF1.0
aF5.0
aF5.0
aF5.0
aF4.0
aF4.0
aF5.0
aF2.0
aF5.0
aF5.0
aF1.0
aF2.0
aF1.0
aF5.0
aF1.0
aF5.0
aF1.0
aF4.0
aF4.0
aF5.0
aF1.0
aF1.0
aF5.0
aF1.0
aF1.0
aF4.0
aF5.0
aF1.0
aF4.0
aF5.0
aF5.0
aF1.0
aF5.0
aF1.0
aF5.0
aF2.0
aF5.0
aF5.0
aF5.0
aF5.0
aF5.0
aF5.0
aF2.0
aF4.0
aF2.0
aF5.0
aF4.0
aF1.0
aF5.0
aF4.0
aF2.0
aF1.0
aF5.0
aF5.0
aF4.0
aF4.0
aF4.0
aF4.0
aF5.0
aF5.0
aF5.0
aF5.0
aF5.0
aF4.0
aF2.0
aF5.0
aF4.0
aF1.0
aF5.0
aF5.0
aF1.0
aF4.0
aF2.0
aF4.0
aF5.0
aF1.0
aF5.0
aF5.0
aF4.0
aF5.0
aF4.0
aF4.0
aF5.0
aF4.0
aF4.0
aF5.0
aF4.0
aF5.0
aF2.0
aF5.0
aF2.0
aF1.0
aF4.0
aF4.0
aF2.0
aF5.0
aF4.0
aF4.0
aF5.0
aF4.0
aF5.0
aF4.0
aF5.0
aF5.0
aF5.0
aF5.0
aF5.0
aF4.0
aF4.0
aF4.0
aF5.0
aF5.0
aF5.0
aF1.0
aF5.0
aF1.0
aF5.0
aF1.0
aF1.0
aF4.0
aF5.0
aF5.0
aF5.0
aF4.0
aF5.0
aF4.0
aF4.0
aF1.0
aF5.0
aF5.0
aF5.0
aF5.0
aF5.0
aF5.0
aF5.0
aF4.0
aF5.0
aF1.0
aF1.0
aF5.0
aF1.0
aF5.0
aF2.0
aF1.0
aF5.0
aF5.0
aF4.0
aF4.0
aF5.0
aF1.0
aF1.0
aF5.0
aF5.0
aF5.0
aF5.0
aF1.0
aF1.0
aF5.0
aF5.0
aF5.0
aF5.0
aF4.0
aF4.0
aF5.0
aF5.0
aF5.0
aF5.0
aF5.0
aF5.0
aF5.0
aF4.0
aF5.0
aF5.0
aF5.0
aF4.0
aF5.0
aF4.0
aF5.0
aF5.0
aF5.0
aF5.0
aF4.0
aF1.0
aF2.0
aF1.0
aF5.0
aF5.0
aF5.0
aF5.0
aF5.0
aF5.0
aF4.0
aF5.0
aF4.0
aF5.0
aF5.0
aF4.0
aF5.0
aF4.0
aF5.0
aF5.0
aF5.0
aF5.0
aF5.0
aF4.0
aF4.0
aF4.0
aF4.0
aF4.0
aF5.0
aF5.0
aF1.0
aF5.0
aF4.0
aF5.0
aF5.0
aF4.0
aF5.0
aF4.0
aF5.0
aF5.0
aF4.0
aF5.0
aF5.0
aF5.0
aF5.0
aF4.0
aF1.0
aF4.0
aF1.0
aF1.0
aF4.0
aF5.0
aF4.0
aF1.0
aF1.0
aF1.0
aF4.0
aF1.0
aF1.0
aF4.0
aF5.0
aF5.0
aF5.0
aF1.0
aF5.0
aF4.0
aF1.0
aF5.0
aF5.0
aF5.0
aF5.0
aF5.0
aF5.0
aF5.0
aF5.0
aF5.0
aF5.0
aF5.0
aF5.0
aF5.0
aF5.0
aF4.0
aF5.0
aF5.0
aF5.0
aF2.0
aF5.0
aF5.0
aF4.0
aF5.0
aF5.0
aF5.0
aF1.0
aF4.0
aF5.0
aF1.0
aF1.0
aF5.0
aF1.0
aF1.0
aF5.0
aF4.0
aF2.0
aF5.0
aF5.0
aF4.0
aF4.0
aF1.0
aF4.0
aF5.0
aF5.0
aF4.0
aF5.0
aF4.0
aF4.0
aF4.0
aF4.0
aF5.0
aF4.0
aF5.0
aF2.0
aF5.0
aF5.0
aF4.0
aF5.0
aF4.0
aF4.0
aF5.0
aF1.0
aF5.0
aF4.0
aF5.0
aF1.0
aF5.0
aF1.0
aF5.0
aF1.0
aF5.0
aF4.0
aF5.0
aF5.0
aF5.0
aF5.0
aF1.0
aF4.0
aF4.0
aF5.0
aF2.0
aF5.0
aF4.0
aF5.0
aF4.0
aF5.0
aF5.0
aF5.0
aF1.0
aF5.0
aF4.0
aF5.0
aF5.0
aF4.0
aF5.0
aF5.0
aF1.0
aF4.0
aF5.0
aF4.0
aF5.0
aF5.0
aF4.0
aF4.0
aF4.0
aF5.0
aF4.0
aF1.0
aF5.0
aF5.0
aF5.0
aF5.0
aF5.0
aF4.0
aF5.0
aF5.0
aF5.0
aF5.0
aF5.0
aF5.0
aF5.0
aF5.0
aF5.0
aF5.0
aF5.0
aF5.0
aF5.0
aF5.0
aF5.0
aF5.0
aF5.0
aF5.0
aF2.0
aF5.0
aF5.0
aF5.0
aF1.0
aF5.0
aF4.0
aF5.0
aF4.0
aF5.0
aF5.0
aF5.0
aF5.0
aF5.0
aF4.0
aF5.0
aF5.0
aF5.0
aF5.0
aF4.0
aF5.0
aF4.0
aF5.0
aF4.0
aF5.0
aF5.0
aF5.0
aF5.0
aF5.0
aF5.0
aF4.0
aF4.0
aF5.0
aF4.0
aF5.0
aF4.0
aF5.0
aF5.0
aF1.0
aF5.0
aF4.0
aF5.0
aF5.0
aF5.0
aF5.0
aF5.0
aF4.0
aF5.0
aF4.0
aF4.0
aF1.0
aF4.0
aF5.0
aF4.0
aF4.0
aF5.0
aF4.0
aF5.0
aF4.0
aF5.0
aF5.0
aF5.0
aF4.0
aF2.0
aF5.0
aF5.0
aF4.0
aF5.0
aF4.0
aF4.0
aF4.0
aF1.0
aF5.0
aF5.0
aF5.0
aF5.0
aF5.0
aF5.0
aF2.0
aF4.0
aF5.0
aF1.0
aF5.0
aF2.0
aF4.0
aF4.0
aF5.0
aF5.0
aF5.0
aF5.0
aF5.0
aF5.0
aF5.0
aF4.0
aF5.0
aF5.0
aF5.0
aF5.0
aF4.0
aF5.0
aF1.0
aF5.0
aF5.0
aF5.0
aF1.0
aF1.0
aF5.0
aF5.0
aF5.0
aF5.0
aF5.0
aF1.0
aF5.0
aF5.0
aF2.0
aF2.0
aF5.0
aF4.0
aF1.0
aF1.0
aF4.0
aF4.0
aF1.0
aF4.0
aF5.0
aF5.0
aF5.0
aF4.0
aF4.0
aF4.0
aF4.0
aF1.0
aF4.0
aF5.0
aF5.0
aF5.0
aF5.0
aF5.0
aF1.0
aF4.0
aF2.0
aF5.0
aF5.0
aF5.0
aF1.0
aF1.0
aF4.0
aF5.0
aF5.0
aF5.0
aF5.0
aF5.0
aF5.0
aF5.0
aF5.0
aF4.0
aF2.0
aF1.0
aF2.0
aF5.0
aF4.0
aF1.0
aF5.0
aF4.0
aF1.0
aF1.0
aF5.0
aF1.0
aF1.0
aF5.0
aF4.0
aF4.0
aF5.0
aF5.0
aF1.0
aF4.0
aF4.0
aF5.0
aF5.0
aF4.0
aF4.0
aF5.0
aF5.0
aF5.0
aF5.0
aF5.0
aF1.0
aF4.0
aF4.0
aF5.0
aF5.0
aF4.0
aF4.0
aF4.0
aF4.0
aF1.0
aF4.0
aF5.0
aF2.0
aF4.0
aF4.0
aF5.0
aF5.0
aF5.0
aF1.0
aF5.0
aF5.0
aF5.0
aF5.0
aF1.0
aF5.0
aF4.0
aF1.0
aF5.0
aF4.0
aF5.0
aF4.0
aF5.0
aF4.0
aF5.0
aF4.0
aF4.0
aF5.0
aF5.0
aF1.0
aF5.0
aF4.0
aF5.0
aF4.0
aF5.0
aF1.0
aF4.0
aF1.0
aF1.0
aF2.0
aF4.0
aF5.0
aF5.0
aF5.0
aF5.0
aF4.0
aF5.0
aF5.0
aF4.0
aF5.0
aF5.0
aF5.0
aF4.0
aF5.0
aF2.0
aF5.0
aF5.0
aF5.0
aF5.0
aF1.0
aF1.0
aF1.0
aF5.0
aF1.0
aF1.0
aF4.0
aF5.0
aF4.0
aF2.0
aF5.0
aF5.0
aF4.0
aF2.0
aF5.0
aF5.0
aF1.0
aF4.0
aF5.0
aF5.0
aF5.0
aF5.0
aF5.0
aF2.0
aF5.0
aF4.0
aF5.0
aF5.0
aF5.0
aF1.0
aF1.0
aF5.0
aF5.0
aF2.0
aF2.0
aF4.0
aF1.0
aF4.0
aF5.0
aF5.0
aF5.0
aF5.0
aF5.0
aF2.0
aF4.0
aF2.0
aF5.0
aF5.0
aF4.0
aF2.0
aF5.0
aF4.0
aF4.0
aF4.0
aF5.0
aF5.0
aF4.0
aF5.0
aF5.0
aF5.0
aF5.0
aF5.0
aF5.0
aF5.0
aF5.0
aF5.0
aF1.0
aF5.0
aF5.0
aF5.0
aF5.0
aF4.0
aF5.0
aF5.0
aF5.0
aF5.0
aF5.0
aF5.0
aF5.0
aF2.0
aF4.0
aF4.0
aF5.0
aF5.0
aF5.0
aF5.0
aF5.0
aF5.0
aF5.0
aF5.0
aF5.0
aF5.0
aF4.0
aF5.0
aF5.0
aF4.0
aF5.0
aF5.0
aF4.0
aF5.0
aF5.0
aF4.0
aF4.0
aF2.0
aF4.0
aF4.0
aF5.0
aF4.0
aF2.0
aF4.0
aF1.0
aF5.0
aF5.0
aF4.0
aF5.0
aF5.0
aF5.0
aF4.0
aF5.0
aF4.0
aF5.0
aF5.0
aF4.0
aF4.0
aF1.0
aF5.0
aF4.0
aF4.0
aF5.0
aF5.0
aF5.0
aF5.0
aF5.0
aF5.0
aF1.0
aF5.0
aF5.0
aF5.0
aF4.0
aF5.0
aF5.0
aF5.0
aF5.0
aF4.0
aF2.0
aF4.0
aF5.0
aF4.0
aF4.0
aF5.0
aF5.0
aF1.0
aF1.0
aF1.0
aF4.0
aF5.0
aF4.0
aF4.0
aF4.0
aF4.0
aF2.0
aF5.0
aF1.0
aF5.0
aF4.0
aF4.0
aF5.0
aF4.0
aF5.0
aF5.0
aF5.0
aF4.0
aF5.0
aF4.0
aF5.0
aF4.0
aF4.0
aF5.0
aF5.0
aF1.0
aF4.0
aF5.0
aF2.0
aF1.0
aF1.0
aF2.0
aF1.0
aF1.0
aF2.0
aF5.0
aF1.0
aF5.0
aF2.0
aF5.0
aF5.0
aF5.0
aF5.0
aF5.0
aF5.0
aF5.0
aF5.0
aF5.0
aF4.0
aF4.0
aF5.0
aF2.0
aF5.0
aF5.0
aF5.0
aF5.0
aF5.0
aF5.0
aF4.0
aF4.0
aF1.0
aF5.0
aF5.0
aF5.0
aF4.0
aF4.0
aF1.0
aF5.0
aF5.0
aF5.0
aF5.0
aF5.0
aF5.0
aF4.0
aF5.0
aF5.0
aF5.0
aF5.0
aF5.0
aF1.0
aF5.0
aF1.0
aF5.0
aF4.0
aF5.0
aF5.0
aF5.0
aF1.0
aF4.0
aF2.0
aF5.0
aF5.0
aF5.0
aF5.0
aF5.0
aF5.0
aF5.0
aF5.0
aF5.0
aF4.0
aF5.0
aF5.0
aF4.0
aF5.0
aF4.0
aF4.0
aF5.0
aF1.0
aF5.0
aF4.0
aF5.0
aF4.0
aF4.0
aF4.0
aF1.0
aF1.0
aF1.0
aF1.0
aF1.0
aF1.0
aF4.0
aF5.0
aF5.0
aF1.0
aF5.0
aF4.0
aF5.0
aF5.0
aF5.0
aF1.0
aF1.0
aF2.0
aF1.0
aF5.0
aF5.0
aF5.0
aF5.0
aF4.0
aF2.0
aF2.0
aF5.0
aF4.0
aF2.0
aF5.0
aF5.0
aF5.0
aF5.0
aF4.0
aF5.0
aF4.0
aF5.0
aF5.0
aF4.0
aF5.0
aF5.0
aF5.0
aF5.0
aF5.0
aF5.0
aF4.0
aF5.0
aF5.0
aF5.0
aF5.0
aF5.0
aF5.0
aF5.0
aF5.0
aF4.0
aF4.0
aF5.0
aF5.0
aF1.0
aF1.0
aF4.0
aF1.0
aF5.0
aF2.0
aF5.0
aF5.0
aF5.0
aF1.0
aF5.0
aF1.0
aF2.0
aF1.0
aF5.0
aF5.0
aF4.0
aF5.0
aF5.0
aF4.0
aF5.0
aF5.0
aF1.0
aF1.0
aF1.0
aF5.0
aF1.0
aF5.0
aF4.0
aF4.0
aF2.0
aF1.0
aF5.0
aF4.0
aF4.0
aF5.0
aF4.0
aF5.0
aF1.0
aF4.0
aF4.0
aF5.0
aF5.0
aF4.0
aF5.0
aF5.0
aF5.0
aF5.0
aF5.0
aF4.0
aF5.0
aF4.0
aF5.0
aF5.0
aF5.0
aF5.0
aF5.0
aF5.0
aF5.0
aF5.0
aF1.0
aF5.0
aF5.0
aF4.0
aF4.0
aF4.0
aF5.0
aF4.0
aF4.0
aF4.0
aF5.0
aF5.0
aF4.0
aF5.0
aF4.0
aF4.0
aF4.0
aF4.0
aF5.0
aF4.0
aF5.0
aF5.0
aF5.0
aF1.0
aF2.0
aF4.0
aF2.0
aF5.0
aF5.0
aF4.0
aF1.0
aF1.0
aF5.0
aF4.0
aF1.0
aF5.0
aF5.0
aF1.0
aF5.0
aF5.0
aF5.0
aF5.0
aF4.0
aF5.0
aF5.0
aF1.0
aF4.0
aF5.0
aF4.0
aF1.0
aF1.0
aF2.0
aF5.0
aF5.0
aF5.0
aF4.0
aF4.0
aF5.0
aF4.0
aF1.0
aF1.0
aF5.0
aF2.0
aF5.0
aF5.0
aF5.0
aF5.0
aF5.0
aF4.0
aF5.0
aF4.0
aF5.0
aF5.0
aF5.0
aF5.0
aF5.0
aF5.0
aF5.0
aF5.0
aF4.0
aF4.0
aF2.0
aF5.0
aF2.0
aF4.0
aF1.0
aF2.0
aF2.0
aF4.0
aF1.0
aF4.0
aF5.0
aF1.0
aF5.0
aF4.0
aF5.0
aF2.0
aF4.0
aF5.0
aF5.0
aF5.0
aF5.0
aF2.0
aF5.0
aF5.0
aF5.0
aF5.0
aF5.0
aF5.0
aF5.0
aF4.0
aF5.0
aF5.0
aF5.0
aF5.0
aF4.0
aF4.0
aF1.0
aF5.0
aF5.0
aF5.0
aF5.0
aF5.0
aF5.0
aF4.0
aF5.0
aF5.0
aF5.0
aF4.0
aF5.0
aF5.0
aF4.0
aF5.0
aF5.0
aF4.0
aF4.0
aF5.0
aF1.0
aF1.0
aF5.0
aF4.0
aF5.0
aF2.0
aF5.0
aF1.0
aF5.0
aF5.0
aF4.0
aF5.0
aF4.0
aF5.0
aF5.0
aF5.0
aF5.0
aF5.0
aF5.0
aF4.0
aF5.0
aF4.0
aF4.0
aF4.0
aF5.0
aF5.0
aF5.0
aF1.0
aF5.0
aF5.0
aF5.0
aF5.0
aF1.0
aF5.0
aF5.0
aF1.0
aF5.0
aF5.0
aF5.0
aF5.0
aF2.0
aF5.0
aF4.0
aF4.0
aF2.0
aF5.0
aF5.0
aF4.0
aF4.0
aF1.0
aF5.0
aF4.0
aF5.0
aF5.0
aF1.0
aF4.0
aF5.0
aF4.0
aF5.0
aF5.0
aF5.0
aF5.0
aF5.0
aF5.0
aF5.0
aF5.0
aF5.0
aF5.0
aF5.0
aF4.0
aF5.0
aF5.0
aF4.0
aF5.0
aF5.0
aF5.0
aF5.0
aF5.0
aF5.0
aF5.0
aF5.0
aF5.0
aF1.0
aF4.0
aF5.0
aF2.0
aF1.0
aF2.0
aF1.0
aF5.0
aF5.0
aF5.0
aF5.0
aF5.0
aF5.0
aF5.0
aF1.0
aF1.0
aF1.0
aF4.0
aF1.0
aF1.0
aF1.0
aF5.0
aF5.0
aF5.0
aF1.0
aF5.0
aF5.0
aF1.0
aF5.0
aF5.0
aF5.0
aF5.0
aF5.0
aF4.0
aF4.0
aF4.0
aF5.0
aF5.0
aF5.0
aF2.0
aF5.0
aF4.0
aF4.0
aF5.0
aF4.0
aF5.0
aF1.0
aF2.0
aF5.0
aF5.0
aF5.0
aF4.0
aF5.0
aF1.0
aF5.0
aF5.0
aF5.0
aF5.0
aF4.0
aF4.0
aF5.0
aF4.0
aF5.0
aF5.0
aF1.0
aF5.0
aF1.0
aF4.0
aF1.0
aF1.0
aF1.0
aF4.0
aF4.0
aF4.0
aF5.0
aF5.0
aF2.0
aF5.0
aF5.0
aF5.0
aF4.0
aF5.0
aF4.0
aF5.0
aF5.0
aF5.0
aF5.0
aF5.0
aF5.0
aF4.0
aF4.0
aF5.0
aF5.0
aF5.0
aF5.0
aF4.0
aF5.0
aF5.0
aF5.0
aF5.0
aF5.0
aF5.0
aF5.0
aF4.0
aF4.0
aF5.0
aF4.0
aF5.0
aF4.0
aF5.0
aF4.0
aF1.0
aF5.0
aF5.0
aF5.0
aF5.0
aF5.0
aF2.0
aF1.0
aF5.0
aF1.0
aF2.0
aF5.0
aF4.0
aF1.0
aF5.0
aF5.0
aF4.0
aF2.0
aF5.0
aF5.0
aF5.0
aF5.0
aF4.0
aF5.0
aF5.0
aF5.0
aF4.0
aF5.0
aF5.0
aF5.0
aF5.0
aF4.0
aF2.0
aF2.0
aF5.0
aF5.0
aF4.0
aF5.0
aF4.0
aF5.0
aF5.0
aF4.0
aF4.0
aF2.0
aF4.0
aF5.0
aF2.0
aF5.0
aF1.0
aF5.0
aF4.0
aF1.0
aF1.0
aF5.0
aF5.0
aF4.0
aF5.0
aF4.0
aF4.0
aF5.0
aF5.0
aF4.0
aF5.0
aF1.0
aF5.0
aF5.0
aF4.0
aF5.0
aF5.0
aF5.0
aF4.0
aF5.0
aF4.0
aF5.0
aF5.0
aF5.0
aF1.0
aF1.0
aF5.0
aF1.0
aF4.0
aF4.0
aF5.0
aF5.0
aF5.0
aF5.0
aF5.0
aF5.0
aF5.0
aF5.0
aF4.0
aF4.0
aF4.0
aF5.0
aF1.0
aF5.0
aF1.0
aF4.0
aF1.0
aF2.0
aF1.0
aF4.0
aF5.0
aF4.0
aF5.0
aF4.0
aF4.0
aF5.0
aF5.0
aF2.0
aF4.0
aF5.0
aF5.0
aF5.0
aF5.0
aF5.0
aF5.0
aF5.0
aF4.0
aF5.0
aF2.0
aF5.0
aF5.0
aF5.0
aF5.0
aF5.0
aF5.0
aF5.0
aF1.0
aF1.0
aF4.0
aF4.0
aF1.0
aF4.0
aF4.0
aF4.0
aF4.0
aF5.0
aF5.0
aF5.0
aF5.0
aF4.0
aF5.0
aF5.0
aF5.0
aF5.0
aF5.0
aF5.0
aF5.0
aF4.0
aF5.0
aF5.0
aF1.0
aF2.0
aF1.0
aF2.0
aF1.0
aF1.0
aF1.0
aF5.0
aF5.0
aF5.0
aF1.0
aF5.0
aF5.0
aF5.0
aF4.0
aF1.0
aF4.0
aF5.0
aF5.0
aF5.0
aF4.0
aF4.0
aF2.0
aF5.0
aF4.0
aF1.0
aF4.0
aF2.0
aF5.0
aF2.0
aF5.0
aF5.0
aF5.0
aF5.0
aF5.0
aF4.0
aF4.0
aF1.0
aF4.0
aF2.0
aF2.0
aF1.0
aF1.0
aF4.0
aF5.0
aF4.0
aF4.0
aF5.0
aF1.0
aF5.0
aF2.0
aF2.0
aF2.0
aF4.0
aF4.0
aF4.0
aF5.0
aF5.0
aF5.0
aF1.0
aF1.0
aF5.0
aF1.0
aF4.0
aF5.0
aF1.0
aF4.0
aF1.0
aF4.0
aF1.0
aF5.0
aF4.0
aF5.0
aF4.0
aF4.0
aF5.0
aF5.0
aF1.0
aF5.0
aF5.0
aF5.0
aF1.0
aF5.0
aF5.0
aF4.0
aF5.0
aF5.0
aF1.0
aF5.0
aF5.0
aF4.0
aF4.0
aF4.0
aF5.0
aF4.0
aF5.0
aF5.0
aF4.0
aF2.0
aF1.0
aF1.0
aF5.0
aF5.0
aF5.0
aF4.0
aF5.0
aF5.0
aF1.0
aF1.0
aF5.0
aF1.0
aF5.0
aF1.0
aF5.0
aF5.0
aF4.0
aF5.0
aF1.0
aF4.0
aF5.0
aF4.0
aF2.0
aF4.0
aF5.0
aF5.0
aF5.0
aF5.0
aF4.0
aF5.0
aF1.0
aF5.0
aF4.0
aF5.0
aF5.0
aF5.0
aF4.0
aF5.0
aF5.0
aF5.0
aF5.0
aF5.0
aF5.0
aF1.0
aF4.0
aF5.0
aF5.0
aF4.0
aF4.0
aF5.0
aF5.0
aF4.0
aF5.0
aF5.0
aF1.0
aF5.0
aF4.0
aF5.0
aF1.0
aF1.0
aF1.0
aF4.0
aF5.0
aF4.0
aF5.0
aF5.0
aF5.0
aF4.0
aF5.0
aF5.0
aF5.0
aF5.0
aF5.0
aF1.0
aF4.0
aF5.0
aF5.0
aF5.0
aF4.0
aF5.0
aF5.0
aF5.0
aF5.0
aF4.0
aF5.0
aF5.0
aF5.0
aF1.0
aF2.0
aF5.0
aF1.0
aF2.0
aF4.0
aF1.0
aF5.0
aF5.0
aF5.0
aF4.0
aF5.0
aF5.0
aF4.0
aF5.0
aF5.0
aF5.0
aF5.0
aF4.0
aF4.0
aF5.0
aF5.0
aF1.0
aF5.0
aF5.0
aF5.0
aF5.0
aF5.0
aF5.0
aF4.0
aF5.0
aF5.0
aF4.0
aF5.0
aF5.0
aF4.0
aF4.0
aF5.0
aF4.0
aF4.0
aF5.0
aF5.0
aF5.0
aF4.0
aF5.0
aF5.0
aF4.0
aF2.0
aF5.0
aF5.0
aF5.0
aF5.0
aF4.0
aF5.0
aF5.0
aF5.0
aF5.0
aF5.0
aF5.0
aF5.0
aF5.0
aF5.0
aF4.0
aF1.0
aF4.0
aF5.0
aF5.0
aF5.0
aF1.0
aF5.0
aF1.0
aF5.0
aF4.0
aF5.0
aF4.0
aF1.0
aF4.0
aF4.0
aF5.0
aF5.0
aF4.0
aF4.0
aF5.0
aF4.0
aF5.0
aF5.0
aF5.0
aF4.0
aF5.0
aF5.0
aF4.0
aF5.0
aF5.0
aF4.0
aF2.0
aF5.0
aF4.0
aF5.0
aF4.0
aF5.0
aF4.0
aF5.0
aF4.0
aF5.0
aF5.0
aF1.0
aF5.0
aF4.0
aF1.0
aF5.0
aF5.0
aF5.0
aF2.0
aF5.0
aF5.0
aF5.0
aF5.0
aF5.0
aF5.0
aF5.0
aF5.0
aF4.0
aF5.0
aF4.0
aF4.0
aF5.0
aF4.0
aF4.0
aF5.0
aF5.0
aF5.0
aF5.0
aF5.0
aF1.0
aF5.0
aF1.0
aF2.0
aF1.0
aF1.0
aF1.0
aF1.0
aF5.0
aF5.0
aF5.0
aF5.0
aF5.0
aF5.0
aF5.0
aF5.0
aF5.0
aF5.0
aF5.0
aF5.0
aF4.0
aF5.0
aF4.0
aF4.0
aF4.0
aF4.0
aF5.0
aF5.0
aF2.0
aF2.0
aF5.0
aF5.0
aF5.0
aF5.0
aF2.0
aF2.0
aF4.0
aF2.0
aF5.0
aF4.0
aF4.0
aF5.0
aF4.0
aF5.0
aF2.0
aF4.0
aF5.0
aF5.0
aF5.0
aF5.0
aF4.0
aF4.0
aF1.0
aF1.0
aF4.0
aF4.0
aF5.0
aF5.0
aF5.0
aF5.0
aF5.0
aF5.0
aF5.0
aF5.0
aF5.0
aF1.0
aF4.0
aF5.0
aF5.0
aF5.0
aF5.0
aF5.0
aF5.0
aF1.0
aF2.0
aF1.0
aF1.0
aF1.0
aF1.0
aF5.0
aF5.0
aF1.0
aF1.0
aF1.0
aF5.0
aF4.0
aF1.0
aF4.0
aF4.0
aF4.0
aF1.0
aF5.0
aF5.0
aF5.0
aF5.0
aF4.0
aF5.0
aF5.0
aF5.0
aF4.0
aF1.0
aF1.0
aF5.0
aF4.0
aF1.0
aF4.0
aF1.0
aF4.0
aF2.0
aF1.0
aF4.0
aF1.0
aF5.0
aF5.0
aF4.0
aF1.0
aF1.0
aF4.0
aF5.0
aF4.0
aF5.0
aF4.0
aF1.0
aF5.0
aF5.0
aF5.0
aF5.0
aF5.0
aF5.0
aF5.0
aF5.0
aF5.0
aF4.0
aF5.0
aF5.0
aF4.0
aF5.0
aF5.0
aF4.0
aF5.0
aF5.0
aF5.0
aF5.0
aF5.0
aF5.0
aF5.0
aF5.0
aF5.0
aF2.0
aF5.0
aF1.0
aF5.0
aF4.0
aF5.0
aF5.0
aF5.0
aF4.0
aF5.0
aF5.0
aF4.0
aF1.0
aF2.0
aF4.0
aF4.0
aF2.0
aF4.0
aF5.0
aF4.0
aF5.0
aF5.0
aF5.0
aF5.0
aF5.0
aF5.0
aF5.0
aF2.0
aF1.0
aF5.0
aF5.0
aF5.0
aF5.0
aF5.0
aF5.0
aF5.0
aF5.0
aF5.0
aF5.0
aF4.0
aF5.0
aF5.0
aF5.0
aF5.0
aF5.0
aF5.0
aF4.0
aF5.0
aF4.0
aF5.0
aF4.0
aF5.0
aF5.0
aF4.0
aF5.0
aF5.0
aF5.0
aF4.0
aF5.0
aF5.0
aF5.0
aF5.0
aF4.0
aF5.0
aF5.0
aF5.0
aF5.0
aF5.0
aF4.0
aF5.0
aF5.0
aF4.0
aF5.0
aF5.0
aF4.0
aF5.0
aF1.0
aF4.0
aF5.0
aF5.0
aF4.0
aF5.0
aF5.0
aF5.0
aF5.0
aF5.0
aF5.0
aF5.0
aF4.0
aF5.0
aF5.0
aF4.0
aF5.0
aF5.0
aF5.0
aF5.0
aF5.0
aF5.0
aF5.0
aF5.0
aF4.0
aF4.0
aF4.0
aF5.0
aF5.0
aF5.0
aF5.0
aF5.0
aF4.0
aF5.0
aF5.0
aF4.0
aF4.0
aF2.0
aF5.0
aF5.0
aF5.0
aF5.0
aF5.0
aF5.0
aF4.0
aF1.0
aF5.0
aF5.0
aF5.0
aF4.0
aF5.0
aF4.0
aF1.0
aF5.0
aF4.0
aF5.0
aF5.0
aF1.0
aF4.0
aF5.0
aF5.0
aF5.0
aF5.0
aF1.0
aF5.0
aF1.0
aF5.0
aF2.0
aF5.0
aF5.0
aF5.0
aF4.0
aF5.0
aF5.0
aF4.0
aF2.0
aF1.0
aF5.0
aF5.0
aF4.0
aF5.0
aF5.0
aF2.0
aF5.0
aF5.0
aF5.0
aF5.0
aF4.0
aF5.0
aF5.0
aF5.0
aF5.0
aF4.0
aF5.0
aF5.0
aF4.0
aF4.0
aF4.0
aF5.0
aF4.0
aF5.0
aF5.0
aF5.0
aF4.0
aF4.0
aF1.0
aF4.0
aF5.0
aF2.0
aF5.0
aF4.0
aF5.0
aF4.0
aF5.0
aF4.0
aF5.0
aF1.0
aF5.0
aF5.0
aF5.0
aF5.0
aF5.0
aF5.0
aF5.0
aF5.0
aF4.0
aF5.0
aF1.0
aF5.0
aF5.0
aF4.0
aF5.0
aF1.0
aF2.0
aF4.0
aF1.0
aF4.0
aF4.0
aF5.0
aF5.0
aF5.0
aF5.0
aF5.0
aF5.0
aF5.0
aF5.0
aF5.0
aF5.0
aF5.0
aF5.0
aF5.0
aF5.0
aF5.0
aF1.0
aF5.0
aF4.0
aF5.0
aF5.0
aF5.0
aF4.0
aF5.0
aF4.0
aF4.0
aF4.0
aF5.0
aF5.0
aF5.0
aF5.0
aF5.0
aF5.0
aF5.0
aF5.0
aF4.0
aF5.0
aF2.0
aF4.0
aF4.0
aF2.0
aF5.0
aF5.0
aF5.0
aF5.0
aF5.0
aF4.0
aF1.0
aF4.0
aF1.0
aF4.0
aF5.0
aF1.0
aF4.0
aF4.0
aF2.0
aF5.0
aF5.0
aF5.0
aF5.0
aF4.0
aF5.0
aF5.0
aF5.0
aF5.0
aF5.0
aF5.0
aF1.0
aF4.0
aF1.0
aF5.0
aF4.0
aF4.0
aF5.0
aF5.0
aF5.0
aF5.0
aF5.0
aF1.0
aF1.0
aF4.0
aF5.0
aF4.0
aF1.0
aF1.0
aF5.0
aF5.0
aF4.0
aF4.0
aF2.0
aF4.0
aF4.0
aF5.0
aF5.0
aF5.0
aF5.0
aF5.0
aF4.0
aF5.0
aF5.0
aF5.0
aF4.0
aF4.0
aF2.0
aF5.0
aF5.0
aF5.0
aF4.0
aF4.0
aF5.0
aF5.0
aF4.0
aF4.0
aF5.0
aF4.0
aF5.0
aF5.0
aF1.0
aF5.0
aF4.0
aF4.0
aF5.0
aF5.0
aF5.0
aF5.0
aF5.0
aF1.0
aF2.0
aF5.0
aF2.0
aF1.0
aF4.0
aF4.0
aF5.0
aF1.0
aF1.0
aF4.0
aF5.0
aF4.0
aF4.0
aF4.0
aF5.0
aF5.0
aF4.0
aF1.0
aF2.0
aF4.0
aF5.0
aF5.0
aF1.0
aF1.0
aF2.0
aF5.0
aF5.0
aF5.0
aF2.0
aF5.0
aF5.0
aF5.0
aF5.0
aF4.0
aF4.0
aF4.0
aF4.0
aF5.0
aF4.0
aF5.0
aF5.0
aF5.0
aF5.0
aF4.0
aF5.0
aF5.0
aF5.0
aF4.0
aF4.0
aF5.0
aF5.0
aF5.0
aF5.0
aF4.0
aF5.0
aF5.0
aF4.0
aF5.0
aF5.0
aF2.0
aF1.0
aF4.0
aF4.0
aF5.0
aF4.0
aF5.0
aF5.0
aF5.0
aF1.0
aF5.0
aF5.0
aF5.0
aF5.0
aF5.0
aF5.0
aF5.0
aF5.0
aF5.0
aF4.0
aF5.0
aF4.0
aF5.0
aF4.0
aF2.0
aF4.0
aF5.0
aF1.0
aF4.0
aF1.0
aF5.0
aF4.0
aF5.0
aF5.0
aF5.0
aF5.0
aF4.0
aF4.0
aF5.0
aF5.0
aF5.0
aF5.0
aF5.0
aF5.0
aF5.0
aF4.0
aF5.0
aF5.0
aF4.0
aF4.0
aF4.0
aF4.0
aF4.0
aF4.0
aF5.0
aF4.0
aF5.0
aF4.0
aF5.0
aF2.0
aF2.0
aF4.0
aF5.0
aF5.0
aF1.0
aF5.0
aF5.0
aF4.0
aF2.0
aF5.0
aF5.0
aF5.0
aF4.0
aF5.0
aF4.0
aF1.0
aF4.0
aF5.0
aF5.0
aF5.0
aF5.0
aF1.0
aF4.0
aF1.0
aF1.0
aF5.0
aF5.0
aF2.0
aF5.0
aF4.0
aF5.0
aF5.0
aF5.0
aF5.0
aF5.0
aF5.0
aF5.0
aF5.0
aF5.0
aF5.0
aF5.0
aF5.0
aF1.0
aF4.0
aF5.0
aF1.0
aF4.0
aF1.0
aF4.0
aF4.0
aF2.0
aF1.0
aF1.0
aF1.0
aF5.0
aF5.0
aF5.0
aF1.0
aF4.0
aF4.0
aF5.0
aF5.0
aF5.0
aF4.0
aF5.0
aF5.0
aF5.0
aF4.0
aF5.0
aF5.0
aF5.0
aF5.0
aF5.0
aF5.0
aF5.0
aF5.0
aF4.0
aF5.0
aF2.0
aF5.0
aF2.0
aF5.0
aF5.0
aF4.0
aF5.0
aF5.0
aF5.0
aF4.0
aF4.0
aF5.0
aF5.0
aF5.0
aF5.0
aF5.0
aF5.0
aF5.0
aF5.0
aF4.0
aF4.0
aF5.0
aF4.0
aF5.0
aF2.0
aF5.0
aF5.0
aF5.0
aF5.0
aF4.0
aF2.0
aF5.0
aF5.0
aF5.0
aF5.0
aF4.0
aF5.0
aF5.0
aF5.0
aF5.0
aF4.0
aF5.0
aF5.0
aF5.0
aF5.0
aF5.0
aF5.0
aF4.0
aF4.0
aF4.0
aF4.0
aF4.0
aF5.0
aF5.0
aF4.0
aF5.0
aF4.0
aF4.0
aF4.0
aF2.0
aF5.0
aF1.0
aF5.0
aF5.0
aF5.0
aF1.0
aF5.0
aF4.0
aF5.0
aF5.0
aF1.0
aF4.0
aF4.0
aF4.0
aF2.0
aF5.0
aF1.0
aF5.0
aF4.0
aF4.0
aF5.0
aF5.0
aF5.0
aF5.0
aF5.0
aF5.0
aF5.0
aF2.0
aF5.0
aF5.0
aF5.0
aF5.0
aF5.0
aF4.0
aF2.0
aF5.0
aF5.0
aF5.0
aF4.0
aF5.0
aF4.0
aF4.0
aF5.0
aF5.0
aF2.0
aF4.0
aF5.0
aF4.0
aF4.0
aF1.0
aF1.0
aF5.0
aF4.0
aF5.0
aF1.0
aF5.0
aF1.0
aF5.0
aF4.0
aF4.0
aF4.0
aF4.0
aF5.0
aF4.0
aF5.0
aF5.0
aF4.0
aF5.0
aF5.0
aF5.0
aF5.0
aF5.0
aF5.0
aF5.0
aF5.0
aF5.0
aF5.0
aF1.0
aF5.0
aF5.0
aF5.0
aF1.0
aF1.0
aF1.0
aF1.0
aF1.0
aF5.0
aF5.0
aF4.0
aF4.0
aF5.0
aF4.0
aF5.0
aF4.0
aF1.0
aF5.0
aF2.0
aF5.0
aF1.0
aF5.0
aF5.0
aF5.0
aF4.0
aF5.0
aF1.0
aF5.0
aF4.0
aF2.0
aF1.0
aF5.0
aF5.0
aF5.0
aF4.0
aF4.0
aF1.0
aF5.0
aF5.0
aF5.0
aF5.0
aF4.0
aF5.0
aF5.0
aF2.0
aF2.0
aF2.0
aF4.0
aF2.0
aF5.0
aF4.0
aF5.0
aF1.0
aF2.0
aF4.0
aF1.0
aF5.0
aF5.0
aF4.0
aF4.0
aF4.0
aF5.0
aF5.0
aF5.0
aF4.0
aF5.0
aF1.0
aF4.0
aF4.0
aF1.0
aF1.0
aF1.0
aF1.0
aF4.0
aF5.0
aF5.0
aF4.0
aF5.0
aF5.0
aF4.0
aF2.0
aF4.0
aF5.0
aF5.0
aF5.0
aF5.0
aF4.0
aF5.0
aF4.0
aF5.0
aF4.0
aF5.0
aF5.0
aF5.0
aF4.0
aF4.0
aF1.0
aF2.0
aF5.0
aF1.0
aF4.0
aF4.0
aF4.0
aF4.0
aF4.0
aF5.0
aF4.0
aF5.0
aF5.0
aF5.0
aF5.0
aF5.0
aF5.0
aF5.0
aF4.0
aF5.0
aF5.0
aF5.0
aF5.0
aF1.0
aF5.0
aF5.0
aF5.0
aF5.0
aF5.0
aF5.0
aF4.0
aF5.0
aF4.0
aF5.0
aF4.0
aF5.0
aF5.0
aF4.0
aF5.0
aF5.0
aF5.0
aF5.0
aF2.0
aF5.0
aF5.0
aF5.0
aF1.0
aF5.0
aF1.0
aF1.0
aF5.0
aF4.0
aF4.0
aF4.0
aF4.0
aF4.0
aF1.0
aF4.0
aF2.0
aF4.0
aF1.0
aF4.0
aF4.0
aF5.0
aF4.0
aF5.0
aF2.0
aF5.0
aF5.0
aF2.0
aF4.0
aF5.0
aF5.0
aF5.0
aF4.0
aF4.0
aF2.0
aF5.0
aF5.0
aF5.0
aF5.0
aF1.0
aF1.0
aF1.0
aF1.0
aF1.0
aF4.0
aF5.0
aF1.0
aF4.0
aF4.0
aF5.0
aF5.0
aF4.0
aF2.0
aF4.0
aF1.0
aF2.0
aF5.0
aF2.0
aF5.0
aF4.0
aF4.0
aF1.0
aF5.0
aF4.0
aF5.0
aF5.0
aF1.0
aF5.0
aF5.0
aF4.0
aF2.0
aF1.0
aF4.0
aF1.0
aF5.0
aF2.0
aF5.0
aF5.0
aF5.0
aF5.0
aF4.0
aF5.0
aF5.0
aF5.0
aF5.0
aF5.0
aF4.0
aF4.0
aF5.0
aF4.0
aF5.0
aF4.0
aF5.0
aF5.0
aF5.0
aF4.0
aF4.0
aF4.0
aF5.0
aF5.0
aF4.0
aF2.0
aF5.0
aF5.0
aF4.0
aF4.0
aF5.0
aF5.0
aF4.0
aF5.0
aF5.0
aF5.0
aF5.0
aF5.0
aF5.0
aF5.0
aF5.0
aF5.0
aF4.0
aF5.0
aF5.0
aF4.0
aF1.0
aF2.0
aF4.0
aF5.0
aF5.0
aF5.0
aF4.0
aF5.0
aF5.0
aF5.0
aF5.0
aF4.0
aF4.0
aF5.0
aF5.0
aF5.0
aF4.0
aF5.0
aF5.0
aF5.0
aF1.0
aF5.0
aF5.0
aF5.0
aF5.0
aF5.0
aF5.0
aF4.0
aF5.0
aF5.0
aF4.0
aF2.0
aF4.0
aF5.0
aF4.0
aF5.0
aF5.0
aF5.0
aF5.0
aF5.0
aF4.0
aF4.0
aF5.0
aF5.0
aF1.0
aF5.0
aF2.0
aF5.0
aF5.0
aF4.0
aF5.0
aF5.0
aF5.0
aF4.0
aF4.0
aF5.0
aF5.0
aF5.0
aF5.0
aF1.0
aF5.0
aF5.0
aF5.0
aF5.0
aF4.0
aF5.0
aF4.0
aF1.0
aF5.0
aF4.0
aF5.0
aF4.0
aF5.0
aF4.0
aF4.0
aF4.0
aF1.0
aF4.0
aF5.0
aF5.0
aF5.0
aF5.0
aF4.0
aF4.0
aF5.0
aF1.0
aF5.0
aF5.0
aF5.0
aF5.0
aF4.0
aF2.0
aF5.0
aF5.0
aF5.0
aF5.0
aF5.0
aF4.0
aF5.0
aF5.0
aF5.0
aF5.0
aF5.0
aF5.0
aF5.0
aF5.0
aF5.0
aF5.0
aF5.0
aF1.0
aF4.0
aF1.0
aF4.0
aF4.0
aF1.0
aF4.0
aF5.0
aF1.0
aF5.0
aF5.0
aF4.0
aF4.0
aF5.0
aF5.0
aF5.0
aF5.0
aF5.0
aF4.0
aF5.0
aF5.0
aF5.0
aF5.0
aF5.0
aF5.0
aF5.0
aF4.0
aF5.0
aF4.0
aF5.0
aF5.0
aF5.0
aF1.0
aF1.0
aF4.0
aF1.0
aF4.0
aF4.0
aF4.0
aF4.0
aF2.0
aF2.0
aF5.0
aF5.0
aF4.0
aF5.0
aF5.0
aF5.0
aF1.0
aF5.0
aF5.0
aF5.0
aF5.0
aF5.0
aF4.0
aF4.0
aF5.0
aF4.0
aF5.0
aF5.0
aF5.0
aF1.0
aF1.0
aF5.0
aF1.0
aF1.0
aF5.0
aF5.0
aF4.0
aF4.0
aF5.0
aF5.0
aF5.0
aF4.0
aF5.0
aF5.0
aF4.0
aF5.0
aF4.0
aF5.0
aF4.0
aF5.0
aF1.0
aF5.0
aF5.0
aF4.0
aF4.0
aF1.0
aF4.0
aF4.0
aF5.0
aF5.0
aF4.0
aF1.0
aF5.0
aF5.0
aF4.0
aF5.0
aF5.0
aF4.0
aF5.0
aF4.0
aF4.0
aF4.0
aF5.0
aF2.0
aF5.0
aF5.0
aF4.0
aF1.0
aF1.0
aF4.0
aF4.0
aF5.0
aF5.0
aF4.0
aF5.0
aF5.0
aF5.0
aF5.0
aF4.0
aF4.0
aF1.0
aF1.0
aF5.0
aF4.0
aF5.0
aF5.0
aF5.0
aF5.0
aF4.0
aF2.0
aF5.0
aF4.0
aF5.0
aF5.0
aF5.0
aF5.0
aF1.0
aF5.0
aF5.0
aF5.0
aF5.0
aF5.0
aF5.0
aF5.0
aF5.0
aF5.0
aF5.0
aF5.0
aF5.0
aF5.0
aF5.0
aF4.0
aF4.0
aF2.0
aF1.0
aF4.0
aF5.0
aF5.0
aF4.0
aF1.0
aF5.0
aF5.0
aF5.0
aF5.0
aF5.0
aF5.0
aF5.0
aF4.0
aF5.0
aF5.0
aF5.0
aF5.0
aF5.0
aF5.0
aF2.0
aF5.0
aF5.0
aF1.0
aF4.0
aF5.0
aF5.0
aF5.0
aF5.0
aF5.0
aF5.0
aF5.0
aF1.0
aF5.0
aF2.0
aF5.0
aF1.0
aF5.0
aF5.0
aF5.0
aF5.0
aF5.0
aF5.0
aF5.0
aF5.0
aF5.0
aF5.0
aF5.0
aF5.0
aF5.0
aF4.0
aF5.0
aF5.0
aF4.0
aF5.0
aF4.0
aF5.0
aF5.0
aF5.0
aF4.0
aF4.0
aF4.0
aF1.0
aF5.0
aF1.0
aF4.0
aF5.0
aF5.0
aF4.0
aF4.0
aF5.0
aF1.0
aF5.0
aF4.0
aF4.0
aF4.0
aF5.0
aF5.0
aF4.0
aF1.0
aF4.0
aF5.0
aF5.0
aF4.0
aF5.0
aF5.0
aF4.0
aF5.0
aF1.0
aF4.0
aF4.0
aF4.0
aF4.0
aF5.0
aF1.0
aF5.0
aF5.0
aF4.0
aF5.0
aF5.0
aF5.0
aF4.0
aF5.0
aF4.0
aF5.0
aF5.0
aF5.0
aF5.0
aF5.0
aF4.0
aF4.0
aF5.0
aF5.0
aF1.0
aF1.0
aF4.0
aF5.0
aF5.0
aF5.0
aF5.0
aF5.0
aF5.0
aF4.0
aF5.0
aF5.0
aF5.0
aF4.0
aF2.0
aF5.0
aF5.0
aF5.0
aF5.0
aF5.0
aF5.0
aF5.0
aF5.0
aF5.0
aF5.0
aF5.0
aF5.0
aF5.0
aF4.0
aF2.0
aF5.0
aF5.0
aF5.0
aF5.0
aF5.0
aF5.0
aF5.0
aF5.0
aF5.0
aF4.0
aF4.0
aF4.0
aF4.0
aF5.0
aF2.0
aF5.0
aF5.0
aF5.0
aF4.0
aF4.0
aF5.0
aF1.0
aF5.0
aF5.0
aF5.0
aF5.0
aF1.0
aF5.0
aF4.0
aF4.0
aF5.0
aF4.0
aF4.0
aF5.0
aF4.0
aF5.0
aF4.0
aF5.0
aF4.0
aF1.0
aF5.0
aF5.0
aF5.0
aF5.0
aF4.0
aF4.0
aF4.0
aF4.0
aF5.0
aF5.0
aF5.0
aF4.0
aF5.0
aF5.0
aF4.0
aF5.0
aF5.0
aF4.0
aF5.0
aF5.0
aF5.0
aF5.0
aF4.0
aF4.0
aF4.0
aF5.0
aF4.0
aF4.0
aF5.0
aF5.0
aF5.0
aF5.0
aF5.0
aF5.0
aF5.0
aF5.0
aF4.0
aF5.0
aF1.0
aF5.0
aF4.0
aF1.0
aF4.0
aF1.0
aF1.0
aF1.0
aF2.0
aF5.0
aF4.0
aF4.0
aF4.0
aF5.0
aF4.0
aF5.0
aF4.0
aF4.0
aF5.0
aF5.0
aF5.0
aF4.0
aF4.0
aF2.0
aF5.0
aF2.0
aF5.0
aF5.0
aF2.0
aF5.0
aF5.0
aF1.0
aF4.0
aF5.0
aF4.0
aF5.0
aF4.0
aF5.0
aF4.0
aF4.0
aF5.0
aF5.0
aF5.0
aF5.0
aF5.0
aF5.0
aF5.0
aF2.0
aF1.0
aF4.0
aF5.0
aF1.0
aF5.0
aF5.0
aF4.0
aF2.0
aF4.0
aF5.0
aF5.0
aF5.0
aF5.0
aF4.0
aF5.0
aF5.0
aF5.0
aF5.0
aF5.0
aF5.0
aF5.0
aF1.0
aF1.0
aF1.0
aF5.0
aF5.0
aF5.0
aF5.0
aF4.0
aF4.0
aF5.0
aF5.0
aF4.0
aF5.0
aF5.0
aF5.0
aF5.0
aF1.0
aF1.0
aF1.0
aF5.0
aF5.0
aF4.0
aF5.0
aF5.0
aF5.0
aF5.0
aF5.0
aF2.0
aF4.0
aF5.0
aF2.0
aF5.0
aF5.0
aF2.0
aF4.0
aF5.0
aF5.0
aF5.0
aF5.0
aF5.0
aF4.0
aF4.0
aF4.0
aF5.0
aF5.0
aF4.0
aF5.0
aF1.0
aF5.0
aF5.0
aF5.0
aF1.0
aF5.0
aF5.0
aF5.0
aF4.0
aF5.0
aF5.0
aF4.0
aF5.0
aF2.0
aF4.0
aF5.0
aF4.0
aF1.0
aF5.0
aF4.0
aF5.0
aF1.0
aF5.0
aF5.0
aF5.0
aF4.0
aF5.0
aF1.0
aF4.0
aF1.0
aF1.0
aF5.0
aF4.0
aF4.0
aF5.0
aF1.0
aF4.0
aF2.0
aF2.0
aF5.0
aF1.0
aF1.0
aF5.0
aF1.0
aF2.0
aF5.0
aF1.0
aF1.0
aF5.0
aF5.0
aF5.0
aF4.0
aF5.0
aF1.0
aF5.0
aF5.0
aF5.0
aF5.0
aF5.0
aF5.0
aF4.0
aF5.0
aF5.0
aF5.0
aF5.0
aF4.0
aF5.0
aF4.0
aF5.0
aF4.0
aF4.0
aF5.0
aF4.0
aF4.0
aF5.0
aF5.0
aF5.0
aF5.0
aF1.0
aF2.0
aF5.0
aF5.0
aF5.0
aF5.0
aF5.0
aF2.0
aF4.0
aF1.0
aF5.0
aF5.0
aF5.0
aF5.0
aF4.0
aF2.0
aF1.0
aF5.0
aF4.0
aF2.0
aF5.0
aF1.0
aF5.0
aF5.0
aF5.0
aF4.0
aF4.0
aF5.0
aF4.0
aF4.0
aF4.0
aF4.0
aF1.0
aF5.0
aF5.0
aF5.0
aF1.0
aF4.0
aF1.0
aF5.0
aF4.0
aF1.0
aF4.0
aF4.0
aF4.0
aF4.0
aF5.0
aF5.0
aF5.0
aF2.0
aF5.0
aF4.0
aF4.0
aF4.0
aF1.0
aF2.0
aF1.0
aF4.0
aF4.0
aF1.0
aF5.0
aF5.0
aF5.0
aF5.0
aF5.0
aF5.0
aF5.0
aF5.0
aF5.0
aF1.0
aF5.0
aF2.0
aF5.0
aF2.0
aF4.0
aF5.0
aF1.0
aF1.0
aF2.0
aF4.0
aF1.0
aF1.0
aF1.0
aF4.0
aF2.0
aF5.0
aF5.0
aF5.0
aF4.0
aF5.0
aF5.0
aF5.0
aF5.0
aF5.0
aF5.0
aF5.0
aF4.0
aF5.0
aF5.0
aF5.0
aF5.0
aF5.0
aF2.0
aF1.0
aF5.0
aF4.0
aF4.0
aF5.0
aF4.0
aF5.0
aF5.0
aF2.0
aF5.0
aF5.0
aF5.0
aF4.0
aF5.0
aF4.0
aF5.0
aF1.0
aF4.0
aF5.0
aF1.0
aF2.0
aF2.0
aF1.0
aF4.0
aF4.0
aF4.0
aF5.0
aF2.0
aF2.0
aF5.0
aF5.0
aF4.0
aF4.0
aF4.0
aF2.0
aF4.0
aF4.0
aF5.0
aF4.0
aF1.0
aF1.0
aF2.0
aF2.0
aF5.0
aF4.0
aF4.0
aF5.0
aF1.0
aF2.0
aF5.0
aF4.0
aF5.0
aF5.0
aF5.0
aF4.0
aF5.0
aF5.0
aF4.0
aF4.0
aF4.0
aF4.0
aF5.0
aF4.0
aF4.0
aF4.0
aF4.0
aF4.0
aF5.0
aF5.0
aF5.0
aF4.0
aF5.0
aF5.0
aF5.0
aF5.0
aF4.0
aF1.0
aF4.0
aF2.0
aF5.0
aF5.0
aF1.0
aF4.0
aF4.0
aF1.0
aF5.0
aF4.0
aF5.0
aF1.0
aF4.0
aF5.0
aF2.0
aF2.0
aF2.0
aF5.0
aF4.0
aF4.0
aF4.0
aF4.0
aF5.0
aF1.0
aF5.0
aF1.0
aF1.0
aF4.0
aF4.0
aF5.0
aF5.0
aF5.0
aF4.0
aF2.0
aF5.0
aF5.0
aF1.0
aF4.0
aF1.0
aF1.0
aF1.0
aF1.0
aF4.0
aF5.0
aF1.0
aF4.0
aF4.0
aF5.0
aF2.0
aF4.0
aF5.0
aF5.0
aF5.0
aF2.0
aF5.0
aF2.0
aF1.0
aF1.0
aF5.0
aF5.0
aF5.0
aF1.0
aF5.0
aF5.0
aF5.0
aF1.0
aF5.0
aF5.0
aF1.0
aF5.0
aF1.0
aF5.0
aF5.0
aF5.0
aF5.0
aF5.0
aF5.0
aF5.0
aF5.0
aF5.0
aF5.0
aF5.0
aF5.0
aF5.0
aF5.0
aF5.0
aF5.0
aF5.0
aF5.0
aF5.0
aF5.0
aF5.0
aF5.0
aF1.0
aF1.0
aF1.0
aF5.0
aF5.0
aF5.0
aF5.0
aF5.0
aF5.0
aF5.0
aF5.0
aF4.0
aF4.0
aF2.0
aF2.0
aF5.0
aF1.0
aF2.0
aF5.0
aF2.0
aF2.0
aF5.0
aF4.0
aF5.0
aF1.0
aF5.0
aF1.0
aF5.0
aF5.0
aF5.0
aF1.0
aF4.0
aF5.0
aF1.0
aF4.0
aF4.0
aF5.0
aF5.0
aF5.0
aF5.0
aF4.0
aF5.0
aF5.0
aF5.0
aF5.0
aF5.0
aF5.0
aF1.0
aF4.0
aF4.0
aF4.0
aF4.0
aF4.0
aF5.0
aF5.0
aF5.0
aF4.0
aF5.0
aF1.0
aF4.0
aF4.0
aF4.0
aF5.0
aF4.0
aF5.0
aF5.0
aF5.0
aF5.0
aF5.0
aF2.0
aF5.0
aF5.0
aF5.0
aF4.0
aF5.0
aF1.0
aF1.0
aF1.0
aF1.0
aF1.0
aF5.0
aF5.0
aF5.0
aF4.0
aF5.0
aF4.0
aF5.0
aF5.0
aF5.0
aF4.0
aF5.0
aF5.0
aF5.0
aF5.0
aF5.0
aF5.0
aF5.0
aF5.0
aF5.0
aF5.0
aF5.0
aF5.0
aF5.0
aF5.0
aF4.0
aF4.0
aF5.0
aF5.0
aF2.0
aF4.0
aF4.0
aF2.0
aF5.0
aF1.0
aF1.0
aF1.0
aF4.0
aF1.0
aF1.0
aF5.0
aF5.0
aF5.0
aF5.0
aF1.0
aF2.0
aF4.0
aF5.0
aF1.0
aF5.0
aF5.0
aF5.0
aF5.0
aF5.0
aF5.0
aF5.0
aF4.0
aF5.0
aF4.0
aF4.0
aF5.0
aF5.0
aF4.0
aF5.0
aF5.0
aF5.0
aF5.0
aF4.0
aF5.0
aF5.0
aF4.0
aF5.0
aF2.0
aF5.0
aF5.0
aF5.0
aF4.0
aF4.0
aF2.0
aF5.0
aF5.0
aF4.0
aF5.0
aF5.0
aF4.0
aF5.0
aF5.0
aF5.0
aF5.0
aF2.0
aF1.0
aF4.0
aF5.0
aF4.0
aF4.0
aF5.0
aF2.0
aF1.0
aF4.0
aF5.0
aF5.0
aF4.0
aF5.0
aF5.0
aF4.0
aF4.0
aF4.0
aF5.0
aF5.0
aF5.0
aF5.0
aF5.0
aF1.0
aF5.0
aF4.0
aF5.0
aF4.0
aF5.0
aF5.0
aF1.0
aF5.0
aF5.0
aF5.0
aF5.0
aF1.0
aF5.0
aF5.0
aF4.0
aF1.0
aF2.0
aF2.0
aF5.0
aF5.0
aF1.0
aF5.0
aF5.0
aF5.0
aF5.0
aF4.0
aF4.0
aF5.0
aF5.0
aF5.0
aF5.0
aF4.0
aF4.0
aF5.0
aF1.0
aF5.0
aF5.0
aF5.0
aF5.0
aF5.0
aF5.0
aF4.0
aF5.0
aF5.0
aF5.0
aF1.0
aF5.0
aF5.0
aF4.0
aF5.0
aF5.0
aF4.0
aF5.0
aF5.0
aF1.0
aF5.0
aF4.0
aF5.0
aF5.0
aF4.0
aF5.0
aF5.0
aF5.0
aF5.0
aF5.0
aF5.0
aF5.0
aF4.0
aF4.0
aF2.0
aF5.0
aF2.0
aF1.0
aF5.0
aF5.0
aF2.0
aF4.0
aF5.0
aF5.0
aF4.0
aF5.0
aF2.0
aF5.0
aF5.0
aF5.0
aF5.0
aF1.0
aF5.0
aF5.0
aF4.0
aF5.0
aF5.0
aF4.0
aF4.0
aF5.0
aF5.0
aF5.0
aF5.0
aF5.0
aF4.0
aF2.0
aF1.0
aF5.0
aF5.0
aF4.0
aF1.0
aF1.0
aF5.0
aF4.0
aF1.0
aF5.0
aF5.0
aF5.0
aF5.0
aF4.0
aF5.0
aF5.0
aF5.0
aF4.0
aF5.0
aF5.0
aF5.0
aF1.0
aF5.0
aF5.0
aF4.0
aF2.0
aF5.0
aF1.0
aF1.0
aF4.0
aF5.0
aF4.0
aF4.0
aF4.0
aF1.0
aF5.0
aF5.0
aF5.0
aF4.0
aF5.0
aF1.0
aF5.0
aF1.0
aF5.0
aF5.0
aF1.0
aF1.0
aF5.0
aF5.0
aF5.0
aF5.0
aF5.0
aF5.0
aF5.0
aF5.0
aF4.0
aF5.0
aF4.0
aF5.0
aF5.0
aF4.0
aF5.0
aF5.0
aF5.0
aF5.0
aF1.0
aF5.0
aF4.0
aF5.0
aF1.0
aF5.0
aF5.0
aF4.0
aF4.0
aF5.0
aF1.0
aF4.0
aF5.0
aF5.0
aF2.0
aF1.0
aF5.0
aF5.0
aF5.0
aF5.0
aF5.0
aF4.0
aF4.0
aF5.0
aF4.0
aF5.0
aF5.0
aF5.0
aF1.0
aF5.0
aF5.0
aF5.0
aF5.0
aF4.0
aF5.0
aF5.0
aF2.0
aF5.0
aF5.0
aF4.0
aF5.0
aF5.0
aF5.0
aF5.0
aF5.0
aF4.0
aF5.0
aF4.0
aF1.0
aF4.0
aF1.0
aF5.0
aF5.0
aF4.0
aF5.0
aF1.0
aF2.0
aF2.0
aF5.0
aF5.0
aF2.0
aF5.0
aF5.0
aF5.0
aF5.0
aF5.0
aF5.0
aF4.0
aF4.0
aF5.0
aF4.0
aF1.0
aF5.0
aF2.0
aF1.0
aF5.0
aF5.0
aF4.0
aF4.0
aF5.0
aF5.0
aF5.0
aF5.0
aF5.0
aF5.0
aF5.0
aF4.0
aF4.0
aF5.0
aF2.0
aF5.0
aF5.0
aF5.0
aF5.0
aF5.0
aF4.0
aF5.0
aF5.0
aF1.0
aF1.0
aF1.0
aF4.0
aF5.0
aF5.0
aF5.0
aF5.0
aF2.0
aF5.0
aF5.0
aF5.0
aF5.0
aF4.0
aF5.0
aF4.0
aF5.0
aF5.0
aF5.0
aF5.0
aF5.0
aF1.0
aF4.0
aF5.0
aF2.0
aF5.0
aF4.0
aF5.0
aF5.0
aF2.0
aF5.0
aF5.0
aF5.0
aF5.0
aF5.0
aF5.0
aF5.0
aF5.0
aF5.0
aF5.0
aF5.0
aF5.0
aF5.0
aF4.0
aF2.0
aF5.0
aF5.0
aF4.0
aF4.0
aF4.0
aF5.0
aF5.0
aF2.0
aF5.0
aF5.0
aF5.0
aF5.0
aF5.0
aF2.0
aF5.0
aF5.0
aF5.0
aF5.0
aF5.0
aF5.0
aF5.0
aF5.0
aF5.0
aF5.0
aF5.0
aF1.0
aF5.0
aF4.0
aF5.0
aF5.0
aF5.0
aF5.0
aF5.0
aF5.0
aF4.0
aF4.0
aF5.0
aF5.0
aF4.0
aF5.0
aF5.0
aF4.0
aF2.0
aF5.0
aF5.0
aF4.0
aF5.0
aF5.0
aF1.0
aF5.0
aF5.0
aF5.0
aF4.0
aF5.0
aF5.0
aF4.0
aF4.0
aF5.0
aF4.0
aF4.0
aF5.0
aF5.0
aF5.0
aF5.0
aF4.0
aF5.0
aF5.0
aF5.0
aF5.0
aF5.0
aF4.0
aF4.0
aF5.0
aF5.0
aF2.0
aF5.0
aF5.0
aF5.0
aF4.0
aF5.0
aF1.0
aF1.0
aF5.0
aF1.0
aF1.0
aF1.0
aF5.0
aF4.0
aF5.0
aF1.0
aF4.0
aF4.0
aF2.0
aF4.0
aF4.0
aF5.0
aF4.0
aF5.0
aF4.0
aF5.0
aF5.0
aF5.0
aF5.0
aF5.0
aF1.0
aF1.0
aF5.0
aF5.0
aF5.0
aF5.0
aF5.0
aF5.0
aF5.0
aF5.0
aF2.0
aF2.0
aF1.0
aF4.0
aF4.0
aF4.0
aF4.0
aF5.0
aF4.0
aF5.0
aF4.0
aF1.0
aF1.0
aF5.0
aF4.0
aF4.0
aF5.0
aF5.0
aF4.0
aF5.0
aF4.0
aF4.0
aF5.0
aF4.0
aF4.0
aF5.0
aF4.0
aF2.0
aF5.0
aF4.0
aF5.0
aF4.0
aF5.0
aF5.0
aF4.0
aF4.0
aF2.0
aF4.0
aF2.0
aF5.0
aF4.0
aF5.0
aF1.0
aF4.0
aF5.0
aF5.0
aF5.0
aF5.0
aF5.0
aF4.0
aF5.0
aF1.0
aF4.0
aF5.0
aF5.0
aF5.0
aF5.0
aF5.0
aF5.0
aF5.0
aF5.0
aF4.0
aF4.0
aF1.0
aF2.0
aF5.0
aF5.0
aF5.0
aF5.0
aF5.0
aF5.0
aF5.0
aF5.0
aF5.0
aF4.0
aF5.0
aF5.0
aF5.0
aF5.0
aF5.0
aF5.0
aF5.0
aF5.0
aF1.0
aF1.0
aF5.0
aF1.0
aF5.0
aF5.0
aF5.0
aF2.0
aF4.0
aF5.0
aF5.0
aF5.0
aF1.0
aF1.0
aF1.0
aF4.0
aF5.0
aF4.0
aF1.0
aF5.0
aF5.0
aF5.0
aF4.0
aF5.0
aF5.0
aF4.0
aF5.0
aF5.0
aF5.0
aF5.0
aF5.0
aF5.0
aF4.0
aF5.0
aF5.0
aF5.0
aF5.0
aF5.0
aF5.0
aF2.0
aF4.0
aF5.0
aF5.0
aF1.0
aF5.0
aF5.0
aF2.0
aF5.0
aF1.0
aF5.0
aF4.0
aF4.0
aF4.0
aF1.0
aF4.0
aF1.0
aF5.0
aF4.0
aF4.0
aF5.0
aF5.0
aF2.0
aF4.0
aF4.0
aF4.0
aF5.0
aF5.0
aF5.0
aF4.0
aF4.0
aF5.0
aF5.0
aF5.0
aF4.0
aF2.0
aF4.0
aF4.0
aF1.0
aF5.0
aF4.0
aF1.0
aF4.0
aF5.0
aF5.0
aF5.0
aF4.0
aF5.0
aF4.0
aF5.0
aF4.0
aF5.0
aF1.0
aF5.0
aF5.0
aF5.0
aF4.0
aF2.0
aF5.0
aF5.0
aF5.0
aF5.0
aF4.0
aF1.0
aF5.0
aF4.0
aF4.0
aF4.0
aF5.0
aF4.0
aF5.0
aF4.0
aF5.0
aF4.0
aF4.0
aF4.0
aF5.0
aF4.0
aF4.0
aF4.0
aF4.0
aF4.0
aF5.0
aF5.0
aF5.0
aF5.0
aF4.0
aF5.0
aF5.0
aF1.0
aF2.0
aF4.0
aF2.0
aF5.0
aF4.0
aF4.0
aF5.0
aF5.0
aF2.0
aF2.0
aF5.0
aF4.0
aF5.0
aF5.0
aF5.0
aF5.0
aF5.0
aF4.0
aF5.0
aF5.0
aF5.0
aF5.0
aF5.0
aF5.0
aF5.0
aF1.0
aF5.0
aF5.0
aF5.0
aF5.0
aF5.0
aF5.0
aF2.0
aF5.0
aF5.0
aF4.0
aF5.0
aF5.0
aF5.0
aF4.0
aF5.0
aF4.0
aF2.0
aF4.0
aF5.0
aF5.0
aF5.0
aF5.0
aF5.0
aF5.0
aF5.0
aF4.0
aF5.0
aF4.0
aF4.0
aF4.0
aF5.0
aF5.0
aF4.0
aF5.0
aF4.0
aF5.0
aF4.0
aF4.0
aF1.0
aF1.0
aF4.0
aF5.0
aF5.0
aF5.0
aF5.0
aF5.0
aF4.0
aF4.0
aF5.0
aF4.0
aF5.0
aF5.0
aF5.0
aF5.0
aF5.0
aF4.0
aF4.0
aF5.0
aF4.0
aF5.0
aF5.0
aF4.0
aF4.0
aF5.0
aF2.0
aF5.0
aF5.0
aF5.0
aF5.0
aF5.0
aF4.0
aF2.0
aF4.0
aF1.0
aF4.0
aF1.0
aF5.0
aF2.0
aF2.0
aF4.0
aF5.0
aF4.0
aF4.0
aF5.0
aF5.0
aF5.0
aF5.0
aF5.0
aF5.0
aF5.0
aF5.0
aF4.0
aF5.0
aF5.0
aF5.0
aF1.0
aF5.0
aF1.0
aF4.0
aF5.0
aF4.0
aF4.0
aF5.0
aF5.0
aF5.0
aF5.0
aF4.0
aF5.0
aF1.0
aF1.0
aF4.0
aF4.0
aF4.0
aF1.0
aF5.0
aF5.0
aF5.0
aF5.0
aF5.0
aF5.0
aF5.0
aF5.0
aF5.0
aF5.0
aF5.0
aF5.0
aF5.0
aF5.0
aF5.0
aF4.0
aF4.0
aF4.0
aF4.0
aF4.0
aF5.0
aF5.0
aF4.0
aF5.0
aF5.0
aF5.0
aF2.0
aF5.0
aF4.0
aF5.0
aF1.0
aF5.0
aF4.0
aF2.0
aF4.0
aF1.0
aF1.0
aF2.0
aF1.0
aF1.0
aF5.0
aF4.0
aF5.0
aF5.0
aF1.0
aF2.0
aF5.0
aF4.0
aF1.0
aF1.0
aF4.0
aF4.0
aF4.0
aF1.0
aF5.0
aF1.0
aF5.0
aF1.0
aF4.0
aF1.0
aF5.0
aF1.0
aF5.0
aF5.0
aF4.0
aF5.0
aF5.0
aF5.0
aF5.0
aF5.0
aF4.0
aF5.0
aF5.0
aF1.0
aF5.0
aF2.0
aF1.0
aF5.0
aF1.0
aF1.0
aF5.0
aF5.0
aF4.0
aF5.0
aF5.0
aF5.0
aF5.0
aF5.0
aF4.0
aF4.0
aF4.0
aF5.0
aF4.0
aF1.0
aF5.0
aF5.0
aF5.0
aF4.0
aF5.0
aF5.0
aF1.0
aF4.0
aF5.0
aF5.0
aF5.0
aF4.0
aF5.0
aF4.0
aF5.0
aF4.0
aF4.0
aF4.0
aF4.0
aF5.0
aF5.0
aF5.0
aF1.0
aF1.0
aF5.0
aF4.0
aF4.0
aF4.0
aF4.0
aF5.0
aF5.0
aF1.0
aF4.0
aF2.0
aF4.0
aF4.0
aF2.0
aF5.0
aF5.0
aF5.0
aF5.0
aF5.0
aF5.0
aF5.0
aF4.0
aF4.0
aF4.0
aF4.0
aF1.0
aF5.0
aF5.0
aF5.0
aF5.0
aF5.0
aF5.0
aF4.0
aF5.0
aF5.0
aF5.0
aF5.0
aF5.0
aF5.0
aF5.0
aF5.0
aF5.0
aF4.0
aF5.0
aF5.0
aF4.0
aF5.0
aF5.0
aF5.0
aF1.0
aF2.0
aF5.0
aF4.0
aF2.0
aF5.0
aF5.0
aF4.0
aF5.0
aF1.0
aF4.0
aF5.0
aF1.0
aF5.0
aF5.0
aF5.0
aF5.0
aF1.0
aF2.0
aF5.0
aF4.0
aF5.0
aF5.0
aF5.0
aF5.0
aF1.0
aF1.0
aF1.0
aF1.0
aF1.0
aF1.0
aF2.0
aF1.0
aF4.0
aF4.0
aF4.0
aF1.0
aF5.0
aF5.0
aF1.0
aF1.0
aF5.0
aF1.0
aF2.0
aF1.0
aF1.0
aF1.0
aF5.0
aF5.0
aF5.0
aF4.0
aF5.0
aF4.0
aF1.0
aF1.0
aF5.0
aF2.0
aF1.0
aF4.0
aF4.0
aF5.0
aF4.0
aF2.0
aF5.0
aF5.0
aF5.0
aF5.0
aF4.0
aF5.0
aF1.0
aF4.0
aF1.0
aF1.0
aF1.0
aF2.0
aF2.0
aF1.0
aF5.0
aF5.0
aF5.0
aF1.0
aF5.0
aF2.0
aF5.0
aF5.0
aF5.0
aF4.0
aF1.0
aF1.0
aF1.0
aF5.0
aF1.0
aF4.0
aF4.0
aF2.0
aF5.0
aF4.0
aF5.0
aF5.0
aF4.0
aF4.0
aF5.0
aF5.0
aF2.0
aF4.0
aF5.0
aF5.0
aF4.0
aF5.0
aF4.0
aF5.0
aF5.0
aF4.0
aF4.0
aF5.0
aF4.0
aF5.0
aF5.0
aF5.0
aF5.0
aF5.0
aF5.0
aF2.0
aF4.0
aF2.0
aF5.0
aF5.0
aF5.0
aF5.0
aF5.0
aF2.0
aF5.0
aF5.0
aF5.0
aF4.0
aF2.0
aF5.0
aF4.0
aF1.0
aF5.0
aF2.0
aF5.0
aF5.0
aF4.0
aF5.0
aF5.0
aF1.0
aF1.0
aF2.0
aF5.0
aF1.0
aF1.0
aF1.0
aF5.0
aF1.0
aF1.0
aF4.0
aF5.0
aF4.0
aF5.0
aF5.0
aF5.0
aF5.0
aF5.0
aF5.0
aF2.0
aF4.0
aF5.0
aF5.0
aF5.0
aF5.0
aF5.0
aF4.0
aF5.0
aF5.0
aF5.0
aF4.0
aF5.0
aF4.0
aF4.0
aF5.0
aF1.0
aF1.0
aF1.0
aF5.0
aF5.0
aF5.0
aF1.0
aF4.0
aF5.0
aF1.0
aF5.0
aF1.0
aF5.0
aF1.0
aF2.0
aF5.0
aF5.0
aF4.0
aF5.0
aF4.0
aF1.0
aF5.0
aF1.0
aF4.0
aF5.0
aF1.0
aF1.0
aF4.0
aF5.0
aF2.0
aF5.0
aF5.0
aF5.0
aF5.0
aF5.0
aF5.0
aF5.0
aF5.0
aF5.0
aF5.0
aF5.0
aF4.0
aF4.0
aF5.0
aF5.0
aF4.0
aF5.0
aF4.0
aF5.0
aF5.0
aF5.0
aF5.0
aF4.0
aF5.0
aF5.0
aF4.0
aF5.0
aF5.0
aF1.0
aF5.0
aF5.0
aF5.0
aF4.0
aF4.0
aF1.0
aF5.0
aF5.0
aF5.0
aF5.0
aF5.0
aF5.0
aF5.0
aF4.0
aF5.0
aF4.0
aF4.0
aF4.0
aF5.0
aF4.0
aF2.0
aF1.0
aF4.0
aF5.0
aF5.0
aF5.0
aF2.0
aF5.0
aF5.0
aF5.0
aF1.0
aF4.0
aF4.0
aF4.0
aF5.0
aF5.0
aF5.0
aF5.0
aF5.0
aF5.0
aF5.0
aF4.0
aF4.0
aF5.0
aF4.0
aF5.0
aF4.0
aF5.0
aF5.0
aF4.0
aF5.0
aF4.0
aF5.0
aF5.0
aF1.0
aF5.0
aF5.0
aF5.0
aF4.0
aF5.0
aF4.0
aF5.0
aF1.0
aF5.0
aF5.0
aF4.0
aF4.0
aF1.0
aF5.0
aF1.0
aF1.0
aF2.0
aF5.0
aF5.0
aF5.0
aF5.0
aF5.0
aF4.0
aF4.0
aF1.0
aF4.0
aF1.0
aF1.0
aF5.0
aF1.0
aF5.0
aF5.0
aF1.0
aF5.0
aF5.0
aF5.0
aF4.0
aF5.0
aF5.0
aF5.0
aF4.0
aF4.0
aF5.0
aF5.0
aF5.0
aF4.0
aF4.0
aF4.0
aF2.0
aF5.0
aF5.0
aF5.0
aF5.0
aF5.0
aF5.0
aF5.0
aF5.0
aF4.0
aF5.0
aF5.0
aF4.0
aF5.0
aF5.0
aF4.0
aF1.0
aF1.0
aF5.0
aF2.0
aF4.0
aF1.0
aF5.0
aF4.0
aF5.0
aF5.0
aF2.0
aF5.0
aF5.0
aF5.0
aF5.0
aF4.0
aF5.0
aF5.0
aF5.0
aF5.0
aF5.0
aF5.0
aF1.0
aF5.0
aF5.0
aF5.0
aF5.0
aF4.0
aF5.0
aF4.0
aF4.0
aF2.0
aF4.0
aF1.0
aF5.0
aF4.0
aF4.0
aF2.0
aF2.0
aF4.0
aF4.0
aF1.0
aF1.0
aF2.0
aF5.0
aF5.0
aF5.0
aF2.0
aF1.0
aF2.0
aF2.0
aF5.0
aF1.0
aF1.0
aF4.0
aF5.0
aF1.0
aF4.0
aF4.0
aF5.0
aF5.0
aF5.0
aF5.0
aF5.0
aF4.0
aF4.0
aF4.0
aF5.0
aF2.0
aF5.0
aF5.0
aF5.0
aF4.0
aF4.0
aF5.0
aF1.0
aF5.0
aF5.0
aF4.0
aF1.0
aF5.0
aF4.0
aF4.0
aF1.0
aF5.0
aF1.0
aF4.0
aF4.0
aF4.0
aF1.0
aF5.0
aF5.0
aF1.0
aF5.0
aF5.0
aF5.0
aF1.0
aF5.0
aF4.0
aF4.0
aF4.0
aF4.0
aF2.0
aF5.0
aF1.0
aF4.0
aF5.0
aF1.0
aF5.0
aF1.0
aF5.0
aF4.0
aF5.0
aF5.0
aF5.0
aF5.0
aF5.0
aF5.0
aF5.0
aF4.0
aF4.0
aF5.0
aF5.0
aF5.0
aF4.0
aF1.0
aF5.0
aF2.0
aF5.0
aF4.0
aF4.0
aF5.0
aF2.0
aF5.0
aF5.0
aF4.0
aF4.0
aF4.0
aF5.0
aF5.0
aF5.0
aF4.0
aF5.0
aF5.0
aF5.0
aF5.0
aF2.0
aF5.0
aF5.0
aF4.0
aF5.0
aF5.0
aF5.0
aF5.0
aF4.0
aF2.0
aF5.0
aF5.0
aF4.0
aF5.0
aF5.0
aF5.0
aF4.0
aF5.0
aF4.0
aF5.0
aF5.0
aF5.0
aF5.0
aF4.0
aF1.0
aF2.0
aF4.0
aF1.0
aF4.0
aF4.0
aF5.0
aF4.0
aF5.0
aF4.0
aF5.0
aF5.0
aF5.0
aF5.0
aF5.0
aF4.0
aF4.0
aF5.0
aF5.0
aF5.0
aF5.0
aF5.0
aF5.0
aF4.0
aF5.0
aF5.0
aF1.0
aF5.0
aF5.0
aF5.0
aF5.0
aF5.0
aF5.0
aF1.0
aF1.0
aF4.0
aF4.0
aF5.0
aF4.0
aF4.0
aF5.0
aF5.0
aF4.0
aF5.0
aF1.0
aF2.0
aF4.0
aF5.0
aF2.0
aF5.0
aF5.0
aF1.0
aF1.0
aF5.0
aF1.0
aF4.0
aF1.0
aF1.0
aF4.0
aF1.0
aF4.0
aF4.0
aF4.0
aF5.0
aF2.0
aF4.0
aF2.0
aF4.0
aF5.0
aF5.0
aF5.0
aF4.0
aF4.0
aF5.0
aF1.0
aF1.0
aF4.0
aF5.0
aF1.0
aF1.0
aF1.0
aF5.0
aF5.0
aF5.0
aF5.0
aF5.0
aF5.0
aF1.0
aF4.0
aF5.0
aF5.0
aF5.0
aF5.0
aF5.0
aF5.0
aF2.0
aF2.0
aF1.0
aF4.0
aF5.0
aF1.0
aF1.0
aF4.0
aF5.0
aF4.0
aF5.0
aF4.0
aF5.0
aF5.0
aF4.0
aF5.0
aF5.0
aF4.0
aF4.0
aF4.0
aF5.0
aF5.0
aF4.0
aF4.0
aF5.0
aF5.0
aF5.0
aF1.0
aF5.0
aF4.0
aF1.0
aF1.0
aF5.0
aF1.0
aF5.0
aF1.0
aF5.0
aF5.0
aF5.0
aF5.0
aF5.0
aF5.0
aF5.0
aF5.0
aF5.0
aF5.0
aF5.0
aF5.0
aF1.0
aF5.0
aF1.0
aF1.0
aF1.0
aF5.0
aF4.0
aF5.0
aF5.0
aF1.0
aF5.0
aF5.0
aF5.0
aF5.0
aF5.0
aF5.0
aF5.0
aF5.0
aF2.0
aF4.0
aF5.0
aF4.0
aF4.0
aF5.0
aF4.0
aF5.0
aF4.0
aF5.0
aF1.0
aF4.0
aF5.0
aF5.0
aF5.0
aF5.0
aF5.0
aF5.0
aF4.0
aF5.0
aF5.0
aF1.0
aF5.0
aF5.0
aF5.0
aF4.0
aF2.0
aF2.0
aF4.0
aF4.0
aF2.0
aF4.0
aF5.0
aF5.0
aF5.0
aF5.0
aF5.0
aF5.0
aF4.0
aF5.0
aF5.0
aF5.0
aF4.0
aF1.0
aF5.0
aF5.0
aF4.0
aF5.0
aF5.0
aF5.0
aF5.0
aF4.0
aF4.0
aF5.0
aF1.0
aF1.0
aF4.0
aF4.0
aF5.0
aF5.0
aF4.0
aF2.0
aF2.0
aF5.0
aF5.0
aF4.0
aF5.0
aF5.0
aF5.0
aF2.0
aF5.0
aF4.0
aF5.0
aF5.0
aF5.0
aF1.0
aF5.0
aF5.0
aF5.0
aF5.0
aF5.0
aF4.0
aF4.0
aF1.0
aF4.0
aF5.0
aF5.0
aF4.0
aF5.0
aF5.0
aF5.0
aF5.0
aF2.0
aF4.0
aF4.0
aF4.0
aF5.0
aF4.0
aF4.0
aF4.0
aF4.0
aF2.0
aF5.0
aF2.0
aF4.0
aF5.0
aF5.0
aF4.0
aF5.0
aF4.0
aF4.0
aF5.0
aF4.0
aF5.0
aF5.0
aF5.0
aF4.0
aF4.0
aF5.0
aF5.0
aF5.0
aF5.0
aF5.0
aF1.0
aF4.0
aF4.0
aF4.0
aF5.0
aF5.0
aF5.0
aF4.0
aF4.0
aF5.0
aF4.0
aF5.0
aF4.0
aF5.0
aF5.0
aF4.0
aF5.0
aF4.0
aF5.0
aF5.0
aF4.0
aF4.0
aF5.0
aF5.0
aF4.0
aF5.0
aF5.0
aF5.0
aF2.0
aF5.0
aF5.0
aF5.0
aF5.0
aF4.0
aF5.0
aF5.0
aF5.0
aF5.0
aF5.0
aF4.0
aF4.0
aF4.0
aF4.0
aF4.0
aF5.0
aF5.0
aF4.0
aF5.0
aF5.0
aF5.0
aF1.0
aF5.0
aF4.0
aF5.0
aF5.0
aF4.0
aF4.0
aF1.0
aF2.0
aF4.0
aF1.0
aF2.0
aF4.0
aF5.0
aF5.0
aF4.0
aF5.0
aF5.0
aF1.0
aF2.0
aF5.0
aF1.0
aF5.0
aF5.0
aF5.0
aF5.0
aF5.0
aF5.0
aF4.0
aF5.0
aF4.0
aF5.0
aF5.0
aF5.0
aF5.0
aF2.0
aF5.0
aF5.0
aF5.0
aF5.0
aF2.0
aF2.0
aF5.0
aF4.0
aF1.0
aF5.0
aF4.0
aF5.0
aF5.0
aF4.0
aF5.0
aF5.0
aF5.0
aF4.0
aF4.0
aF5.0
aF5.0
aF5.0
aF5.0
aF2.0
aF4.0
aF1.0
aF1.0
aF1.0
aF2.0
aF5.0
aF2.0
aF5.0
aF4.0
aF4.0
aF1.0
aF4.0
aF5.0
aF5.0
aF4.0
aF5.0
aF4.0
aF4.0
aF4.0
aF4.0
aF5.0
aF4.0
aF5.0
aF4.0
aF4.0
aF1.0
aF4.0
aF5.0
aF5.0
aF1.0
aF4.0
aF5.0
aF5.0
aF5.0
aF5.0
aF1.0
aF5.0
aF5.0
aF2.0
aF5.0
aF5.0
aF5.0
aF2.0
aF5.0
aF1.0
aF5.0
aF5.0
aF4.0
aF5.0
aF4.0
aF5.0
aF5.0
aF5.0
aF5.0
aF5.0
aF5.0
aF5.0
aF5.0
aF5.0
aF2.0
aF5.0
aF5.0
aF5.0
aF4.0
aF5.0
aF4.0
aF4.0
aF4.0
aF4.0
aF5.0
aF5.0
aF5.0
aF4.0
aF4.0
aF5.0
aF4.0
aF5.0
aF5.0
aF2.0
aF5.0
aF5.0
aF5.0
aF2.0
aF5.0
aF5.0
aF4.0
aF4.0
aF5.0
aF5.0
aF5.0
aF5.0
aF5.0
aF5.0
aF1.0
aF5.0
aF5.0
aF4.0
aF2.0
aF4.0
aF2.0
aF4.0
aF4.0
aF5.0
aF2.0
aF1.0
aF1.0
aF5.0
aF5.0
aF5.0
aF4.0
aF4.0
aF4.0
aF4.0
aF5.0
aF5.0
aF5.0
aF5.0
aF5.0
aF5.0
aF4.0
aF1.0
aF5.0
aF5.0
aF5.0
aF5.0
aF5.0
aF5.0
aF5.0
aF5.0
aF5.0
aF1.0
aF5.0
aF1.0
aF1.0
aF5.0
aF5.0
aF5.0
aF2.0
aF5.0
aF5.0
aF5.0
aF4.0
aF2.0
aF5.0
aF5.0
aF5.0
aF4.0
aF4.0
aF4.0
aF1.0
aF2.0
aF5.0
aF2.0
aF4.0
aF4.0
aF4.0
aF1.0
aF5.0
aF5.0
aF5.0
aF5.0
aF1.0
aF4.0
aF5.0
aF5.0
aF4.0
aF4.0
aF5.0
aF5.0
aF4.0
aF5.0
aF5.0
aF1.0
aF5.0
aF1.0
aF1.0
aF5.0
aF2.0
aF1.0
aF1.0
aF1.0
aF1.0
aF5.0
aF5.0
aF1.0
aF5.0
aF5.0
aF4.0
aF4.0
aF5.0
aF5.0
aF4.0
aF4.0
aF1.0
aF2.0
aF4.0
aF1.0
aF4.0
aF5.0
aF5.0
aF4.0
aF1.0
aF5.0
aF4.0
aF2.0
aF5.0
aF2.0
aF1.0
aF5.0
aF2.0
aF5.0
aF2.0
aF5.0
aF5.0
aF2.0
aF1.0
aF5.0
aF5.0
aF1.0
aF1.0
aF5.0
aF5.0
aF5.0
aF5.0
aF4.0
aF2.0
aF4.0
aF5.0
aF1.0
aF4.0
aF5.0
aF5.0
aF4.0
aF1.0
aF1.0
aF4.0
aF2.0
aF1.0
aF5.0
aF2.0
aF4.0
aF4.0
aF4.0
aF5.0
aF5.0
aF4.0
aF4.0
aF5.0
aF5.0
aF5.0
aF5.0
aF5.0
aF5.0
aF5.0
aF5.0
aF5.0
aF5.0
aF5.0
aF5.0
aF5.0
aF5.0
aF1.0
aF4.0
aF5.0
aF4.0
aF5.0
aF5.0
aF5.0
aF1.0
aF4.0
aF4.0
aF4.0
aF5.0
aF2.0
aF4.0
aF5.0
aF2.0
aF4.0
aF5.0
aF5.0
aF5.0
aF5.0
aF5.0
aF4.0
aF4.0
aF5.0
aF5.0
aF5.0
aF4.0
aF5.0
aF5.0
aF1.0
aF5.0
aF5.0
aF5.0
aF5.0
aF5.0
aF5.0
aF5.0
aF4.0
aF4.0
aF5.0
aF5.0
aF5.0
aF5.0
aF5.0
aF5.0
aF5.0
aF5.0
aF5.0
aF2.0
aF4.0
aF5.0
aF1.0
aF5.0
aF2.0
aF1.0
aF2.0
aF4.0
aF1.0
aF4.0
aF2.0
aF5.0
aF4.0
aF5.0
aF5.0
aF5.0
aF5.0
aF5.0
aF5.0
aF1.0
aF2.0
aF2.0
aF5.0
aF4.0
aF4.0
aF5.0
aF5.0
aF5.0
aF5.0
aF4.0
aF5.0
aF5.0
aF5.0
aF5.0
aF4.0
aF4.0
aF2.0
aF4.0
aF1.0
aF4.0
aF5.0
aF5.0
aF1.0
aF5.0
aF2.0
aF5.0
aF5.0
aF5.0
aF5.0
aF5.0
aF4.0
aF4.0
aF4.0
aF1.0
aF5.0
aF4.0
aF5.0
aF5.0
aF1.0
aF5.0
aF5.0
aF4.0
aF5.0
aF5.0
aF4.0
aF4.0
aF5.0
aF1.0
aF4.0
aF5.0
aF5.0
aF5.0
aF2.0
aF1.0
aF4.0
aF5.0
aF5.0
aF5.0
aF5.0
aF5.0
aF5.0
aF5.0
aF5.0
aF5.0
aF5.0
aF5.0
aF5.0
aF4.0
aF5.0
aF1.0
aF5.0
aF1.0
aF1.0
aF5.0
aF4.0
aF1.0
aF2.0
aF4.0
aF5.0
aF5.0
aF2.0
aF5.0
aF5.0
aF5.0
aF5.0
aF4.0
aF1.0
aF5.0
aF5.0
aF4.0
aF5.0
aF5.0
aF5.0
aF4.0
aF4.0
aF5.0
aF5.0
aF2.0
aF5.0
aF1.0
aF4.0
aF5.0
aF5.0
aF5.0
aF4.0
aF5.0
aF4.0
aF5.0
aF5.0
aF5.0
aF5.0
aF5.0
aF5.0
aF5.0
aF5.0
aF5.0
aF5.0
aF5.0
aF1.0
aF1.0
aF4.0
aF5.0
aF4.0
aF4.0
aF4.0
aF5.0
aF5.0
aF1.0
aF4.0
aF5.0
aF5.0
aF1.0
aF5.0
aF5.0
aF5.0
aF5.0
aF5.0
aF5.0
aF5.0
aF5.0
aF5.0
aF5.0
aF5.0
aF1.0
aF4.0
aF5.0
aF4.0
aF5.0
aF5.0
aF4.0
aF2.0
aF4.0
aF5.0
aF5.0
aF5.0
aF4.0
aF4.0
aF5.0
aF1.0
aF5.0
aF5.0
aF1.0
aF4.0
aF1.0
aF4.0
aF5.0
aF5.0
aF5.0
aF1.0
aF4.0
aF5.0
aF5.0
aF5.0
aF5.0
aF2.0
aF1.0
aF1.0
aF5.0
aF5.0
aF5.0
aF5.0
aF5.0
aF4.0
aF5.0
aF5.0
aF5.0
aF4.0
aF5.0
aF5.0
aF5.0
aF4.0
aF5.0
aF4.0
aF5.0
aF1.0
aF4.0
aF5.0
aF5.0
aF5.0
aF1.0
aF4.0
aF5.0
aF4.0
aF5.0
aF1.0
aF2.0
aF4.0
aF5.0
aF1.0
aF5.0
aF4.0
aF5.0
aF5.0
aF5.0
aF4.0
aF4.0
aF4.0
aF2.0
aF5.0
aF1.0
aF4.0
aF4.0
aF5.0
aF2.0
aF5.0
aF4.0
aF1.0
aF5.0
aF1.0
aF2.0
aF5.0
aF1.0
aF5.0
aF5.0
aF5.0
aF4.0
aF5.0
aF1.0
aF5.0
aF1.0
aF5.0
aF5.0
aF5.0
aF4.0
aF5.0
aF5.0
aF5.0
aF5.0
aF5.0
aF5.0
aF4.0
aF5.0
aF5.0
aF4.0
aF5.0
aF4.0
aF4.0
aF5.0
aF2.0
aF1.0
aF5.0
aF5.0
aF5.0
aF5.0
aF1.0
aF2.0
aF1.0
aF5.0
aF5.0
aF2.0
aF4.0
aF5.0
aF5.0
aF5.0
aF5.0
aF4.0
aF2.0
aF5.0
aF5.0
aF5.0
aF5.0
aF5.0
aF4.0
aF5.0
aF5.0
aF5.0
aF5.0
aF5.0
aF5.0
aF5.0
aF5.0
aF5.0
aF4.0
aF5.0
aF5.0
aF4.0
aF4.0
aF4.0
aF5.0
aF4.0
aF5.0
aF4.0
aF5.0
aF4.0
aF5.0
aF5.0
aF4.0
aF5.0
aF5.0
aF5.0
aF1.0
aF4.0
aF4.0
aF1.0
aF4.0
aF4.0
aF5.0
aF5.0
aF5.0
aF4.0
aF4.0
aF5.0
aF5.0
aF5.0
aF5.0
aF4.0
aF4.0
aF1.0
aF5.0
aF5.0
aF5.0
aF5.0
aF5.0
aF4.0
aF5.0
aF1.0
aF5.0
aF4.0
aF5.0
aF1.0
aF1.0
aF4.0
aF5.0
aF5.0
aF1.0
aF1.0
aF5.0
aF5.0
aF2.0
aF1.0
aF2.0
aF4.0
aF5.0
aF4.0
aF5.0
aF5.0
aF1.0
aF5.0
aF5.0
aF1.0
aF5.0
aF4.0
aF4.0
aF5.0
aF5.0
aF5.0
aF4.0
aF4.0
aF5.0
aF5.0
aF5.0
aF5.0
aF5.0
aF5.0
aF2.0
aF4.0
aF1.0
aF4.0
aF5.0
aF5.0
aF5.0
aF5.0
aF5.0
aF5.0
aF5.0
aF4.0
aF4.0
aF4.0
aF5.0
aF1.0
aF4.0
aF5.0
aF4.0
aF5.0
aF5.0
aF2.0
aF4.0
aF5.0
aF4.0
aF5.0
aF1.0
aF4.0
aF4.0
aF5.0
aF2.0
aF5.0
aF5.0
aF1.0
aF2.0
aF1.0
aF5.0
aF5.0
aF5.0
aF4.0
aF5.0
aF5.0
aF5.0
aF5.0
aF4.0
aF2.0
aF5.0
aF5.0
aF5.0
aF5.0
aF5.0
aF1.0
aF5.0
aF1.0
aF5.0
aF5.0
aF5.0
aF5.0
aF5.0
aF4.0
aF4.0
aF5.0
aF4.0
aF4.0
aF4.0
aF1.0
aF2.0
aF1.0
aF1.0
aF5.0
aF5.0
aF1.0
aF2.0
aF5.0
aF1.0
aF5.0
aF5.0
aF4.0
aF5.0
aF4.0
aF4.0
aF4.0
aF2.0
aF5.0
aF1.0
aF5.0
aF5.0
aF5.0
aF1.0
aF5.0
aF4.0
aF5.0
aF4.0
aF5.0
aF4.0
aF4.0
aF2.0
aF1.0
aF5.0
aF5.0
aF4.0
aF5.0
aF5.0
aF1.0
aF4.0
aF1.0
aF5.0
aF5.0
aF5.0
aF1.0
aF5.0
aF5.0
aF4.0
aF1.0
aF5.0
aF5.0
aF4.0
aF5.0
aF5.0
aF5.0
aF4.0
aF5.0
aF5.0
aF5.0
aF5.0
aF5.0
aF5.0
aF5.0
aF5.0
aF4.0
aF5.0
aF4.0
aF4.0
aF4.0
aF5.0
aF5.0
aF1.0
aF5.0
aF4.0
aF5.0
aF1.0
aF4.0
aF5.0
aF2.0
aF5.0
aF5.0
aF5.0
aF5.0
aF5.0
aF5.0
aF5.0
aF5.0
aF5.0
aF5.0
aF1.0
aF5.0
aF5.0
aF5.0
aF5.0
aF2.0
aF5.0
aF4.0
aF5.0
aF4.0
aF5.0
aF5.0
aF5.0
aF5.0
aF4.0
aF5.0
aF5.0
aF5.0
aF5.0
aF5.0
aF5.0
aF5.0
aF4.0
aF4.0
aF5.0
aF5.0
aF5.0
aF5.0
aF5.0
aF5.0
aF5.0
aF5.0
aF5.0
aF5.0
aF5.0
aF5.0
aF5.0
aF5.0
aF5.0
aF5.0
aF5.0
aF4.0
aF5.0
aF5.0
aF4.0
aF5.0
aF4.0
aF5.0
aF1.0
aF1.0
aF5.0
aF5.0
aF1.0
aF1.0
aF5.0
aF5.0
aF5.0
aF5.0
aF1.0
aF1.0
aF1.0
aF5.0
aF5.0
aF5.0
aF5.0
aF4.0
aF5.0
aF5.0
aF5.0
aF5.0
aF5.0
aF5.0
aF5.0
aF5.0
aF5.0
aF5.0
aF4.0
aF5.0
aF1.0
aF4.0
aF5.0
aF4.0
aF5.0
aF5.0
aF5.0
aF2.0
aF5.0
aF2.0
aF2.0
aF2.0
aF5.0
aF5.0
aF5.0
aF2.0
aF5.0
aF5.0
aF4.0
aF5.0
aF5.0
aF1.0
aF5.0
aF5.0
aF5.0
aF4.0
aF2.0
aF1.0
aF4.0
aF1.0
aF5.0
aF5.0
aF5.0
aF5.0
aF5.0
aF5.0
aF4.0
aF5.0
aF5.0
aF5.0
aF5.0
aF4.0
aF5.0
aF5.0
aF5.0
aF5.0
aF5.0
aF5.0
aF1.0
aF5.0
aF4.0
aF5.0
aF4.0
aF1.0
aF4.0
aF5.0
aF5.0
aF1.0
aF4.0
aF5.0
aF5.0
aF5.0
aF5.0
aF5.0
aF1.0
aF5.0
aF5.0
aF5.0
aF4.0
aF4.0
aF5.0
aF4.0
aF5.0
aF5.0
aF1.0
aF2.0
aF5.0
aF1.0
aF5.0
aF4.0
aF4.0
aF5.0
aF4.0
aF5.0
aF5.0
aF5.0
aF5.0
aF5.0
aF5.0
aF5.0
aF1.0
aF5.0
aF5.0
aF5.0
aF1.0
aF5.0
aF5.0
aF4.0
aF1.0
aF1.0
aF1.0
aF5.0
aF1.0
aF5.0
aF5.0
aF5.0
aF5.0
aF5.0
aF4.0
aF5.0
aF5.0
aF5.0
aF5.0
aF1.0
aF5.0
aF5.0
aF1.0
aF4.0
aF5.0
aF5.0
aF5.0
aF5.0
aF5.0
aF5.0
aF5.0
aF5.0
aF4.0
aF5.0
aF5.0
aF5.0
aF4.0
aF2.0
aF5.0
aF5.0
aF1.0
aF5.0
aF4.0
aF4.0
aF5.0
aF5.0
aF4.0
aF4.0
aF5.0
aF5.0
aF5.0
aF5.0
aF5.0
aF5.0
aF4.0
aF4.0
aF5.0
aF1.0
aF1.0
aF2.0
aF5.0
aF5.0
aF4.0
aF5.0
aF1.0
aF5.0
aF5.0
aF5.0
aF4.0
aF5.0
aF5.0
aF5.0
aF5.0
aF4.0
aF5.0
aF5.0
aF5.0
aF5.0
aF5.0
aF1.0
aF4.0
aF5.0
aF5.0
aF2.0
aF4.0
aF2.0
aF4.0
aF4.0
aF5.0
aF5.0
aF5.0
aF5.0
aF4.0
aF5.0
aF4.0
aF5.0
aF4.0
aF4.0
aF5.0
aF4.0
aF4.0
aF2.0
aF5.0
aF4.0
aF1.0
aF5.0
aF5.0
aF5.0
aF5.0
aF4.0
aF5.0
aF4.0
aF1.0
aF5.0
aF1.0
aF5.0
aF4.0
aF5.0
aF5.0
aF2.0
aF4.0
aF5.0
aF5.0
aF4.0
aF5.0
aF5.0
aF5.0
aF4.0
aF5.0
aF5.0
aF5.0
aF5.0
aF5.0
aF5.0
aF5.0
aF5.0
aF5.0
aF5.0
aF5.0
aF5.0
aF5.0
aF5.0
aF5.0
aF4.0
aF5.0
aF1.0
aF5.0
aF4.0
aF1.0
aF1.0
aF5.0
aF5.0
aF4.0
aF5.0
aF5.0
aF4.0
aF4.0
aF4.0
aF5.0
aF5.0
aF5.0
aF5.0
aF5.0
aF5.0
aF5.0
aF5.0
aF4.0
aF5.0
aF1.0
aF1.0
aF1.0
aF5.0
aF4.0
aF2.0
aF5.0
aF5.0
aF5.0
aF5.0
aF4.0
aF5.0
aF4.0
aF5.0
aF5.0
aF4.0
aF5.0
aF1.0
aF5.0
aF5.0
aF4.0
aF1.0
aF5.0
aF5.0
aF1.0
aF5.0
aF4.0
aF5.0
aF5.0
aF1.0
aF5.0
aF5.0
aF2.0
aF1.0
aF5.0
aF1.0
aF2.0
aF5.0
aF5.0
aF2.0
aF4.0
aF5.0
aF5.0
aF5.0
aF5.0
aF5.0
aF5.0
aF5.0
aF5.0
aF5.0
aF5.0
aF5.0
aF1.0
aF1.0
aF5.0
aF4.0
aF5.0
aF5.0
aF4.0
aF1.0
aF5.0
aF4.0
aF5.0
aF5.0
aF4.0
aF5.0
aF5.0
aF1.0
aF5.0
aF5.0
aF2.0
aF5.0
aF5.0
aF5.0
aF5.0
aF5.0
aF4.0
aF4.0
aF4.0
aF2.0
aF2.0
aF5.0
aF1.0
aF1.0
aF4.0
aF5.0
aF5.0
aF5.0
aF5.0
aF4.0
aF5.0
aF5.0
aF5.0
aF5.0
aF5.0
aF5.0
aF5.0
aF4.0
aF5.0
aF4.0
aF5.0
aF5.0
aF5.0
aF5.0
aF5.0
aF4.0
aF4.0
aF4.0
aF5.0
aF1.0
aF4.0
aF5.0
aF5.0
aF5.0
aF5.0
aF2.0
aF4.0
aF5.0
aF5.0
aF5.0
aF1.0
aF2.0
aF5.0
aF4.0
aF5.0
aF5.0
aF5.0
aF5.0
aF5.0
aF5.0
aF5.0
aF4.0
aF2.0
aF5.0
aF5.0
aF1.0
aF5.0
aF5.0
aF4.0
aF5.0
aF1.0
aF5.0
aF5.0
aF5.0
aF5.0
aF5.0
aF5.0
aF4.0
aF5.0
aF5.0
aF4.0
aF4.0
aF2.0
aF4.0
aF5.0
aF5.0
aF4.0
aF5.0
aF5.0
aF5.0
aF4.0
aF5.0
aF4.0
aF4.0
aF5.0
aF5.0
aF1.0
aF4.0
aF5.0
aF1.0
aF2.0
aF1.0
aF2.0
aF1.0
aF1.0
aF1.0
aF2.0
aF4.0
aF5.0
aF1.0
aF5.0
aF5.0
aF1.0
aF5.0
aF1.0
aF5.0
aF5.0
aF5.0
aF5.0
aF5.0
aF4.0
aF5.0
aF5.0
aF4.0
aF4.0
aF4.0
aF5.0
aF1.0
aF2.0
aF4.0
aF1.0
aF2.0
aF5.0
aF5.0
aF1.0
aF5.0
aF4.0
aF5.0
aF5.0
aF5.0
aF4.0
aF4.0
aF4.0
aF1.0
aF1.0
aF5.0
aF2.0
aF4.0
aF5.0
aF5.0
aF4.0
aF2.0
aF1.0
aF5.0
aF1.0
aF1.0
aF5.0
aF5.0
aF5.0
aF5.0
aF5.0
aF5.0
aF5.0
aF5.0
aF4.0
aF5.0
aF5.0
aF4.0
aF5.0
aF4.0
aF4.0
aF1.0
aF5.0
aF5.0
aF5.0
aF5.0
aF5.0
aF5.0
aF5.0
aF5.0
aF4.0
aF5.0
aF5.0
aF5.0
aF5.0
aF4.0
aF5.0
aF4.0
aF5.0
aF2.0
aF5.0
aF4.0
aF5.0
aF1.0
aF5.0
aF5.0
aF5.0
aF5.0
aF5.0
aF4.0
aF5.0
aF5.0
aF5.0
aF1.0
aF5.0
aF5.0
aF5.0
aF4.0
aF5.0
aF4.0
aF5.0
aF5.0
aF5.0
aF5.0
aF5.0
aF5.0
aF5.0
aF1.0
aF4.0
aF5.0
aF2.0
aF5.0
aF2.0
aF5.0
aF2.0
aF5.0
aF5.0
aF4.0
aF5.0
aF5.0
aF5.0
aF5.0
aF5.0
aF1.0
aF5.0
aF4.0
aF5.0
aF2.0
aF5.0
aF4.0
aF2.0
aF4.0
aF5.0
aF1.0
aF4.0
aF5.0
aF4.0
aF5.0
aF5.0
aF5.0
aF5.0
aF5.0
aF5.0
aF5.0
aF5.0
aF5.0
aF5.0
aF5.0
aF5.0
aF5.0
aF5.0
aF5.0
aF5.0
aF4.0
aF5.0
aF4.0
aF1.0
aF5.0
aF5.0
aF4.0
aF5.0
aF5.0
aF4.0
aF1.0
aF4.0
aF5.0
aF5.0
aF5.0
aF4.0
aF5.0
aF5.0
aF5.0
aF1.0
aF5.0
aF5.0
aF5.0
aF1.0
aF5.0
aF5.0
aF5.0
aF5.0
aF4.0
aF2.0
aF4.0
aF4.0
aF4.0
aF4.0
aF5.0
aF5.0
aF5.0
aF5.0
aF5.0
aF5.0
aF5.0
aF5.0
aF5.0
aF5.0
aF5.0
aF5.0
aF5.0
aF5.0
aF1.0
aF1.0
aF4.0
aF2.0
aF5.0
aF5.0
aF1.0
aF4.0
aF1.0
aF2.0
aF4.0
aF1.0
aF5.0
aF5.0
aF5.0
aF5.0
aF5.0
aF5.0
aF5.0
aF4.0
aF4.0
aF4.0
aF5.0
aF1.0
aF2.0
aF1.0
aF5.0
aF5.0
aF5.0
aF5.0
aF5.0
aF5.0
aF5.0
aF2.0
aF5.0
aF5.0
aF1.0
aF4.0
aF5.0
aF5.0
aF5.0
aF5.0
aF5.0
aF5.0
aF4.0
aF5.0
aF5.0
aF5.0
aF4.0
aF5.0
aF4.0
aF4.0
aF2.0
aF4.0
aF2.0
aF1.0
aF5.0
aF2.0
aF5.0
aF5.0
aF5.0
aF5.0
aF4.0
aF5.0
aF4.0
aF5.0
aF5.0
aF1.0
aF1.0
aF2.0
aF4.0
aF4.0
aF4.0
aF4.0
aF5.0
aF5.0
aF4.0
aF2.0
aF5.0
aF5.0
aF5.0
aF5.0
aF5.0
aF5.0
aF5.0
aF4.0
aF5.0
aF5.0
aF5.0
aF4.0
aF2.0
aF4.0
aF4.0
aF4.0
aF4.0
aF5.0
aF5.0
aF5.0
aF5.0
aF5.0
aF5.0
aF5.0
aF5.0
aF5.0
aF5.0
aF5.0
aF2.0
aF5.0
aF1.0
aF1.0
aF5.0
aF5.0
aF5.0
aF5.0
aF5.0
aF5.0
aF1.0
aF4.0
aF5.0
aF5.0
aF4.0
aF4.0
aF5.0
aF4.0
aF1.0
aF1.0
aF5.0
aF1.0
aF4.0
aF5.0
aF5.0
aF5.0
aF4.0
aF4.0
aF5.0
aF5.0
aF5.0
aF5.0
aF5.0
aF5.0
aF5.0
aF5.0
aF5.0
aF5.0
aF4.0
aF4.0
aF2.0
aF5.0
aF5.0
aF4.0
aF5.0
aF2.0
aF5.0
aF5.0
aF5.0
aF5.0
aF5.0
aF5.0
aF5.0
aF5.0
aF4.0
aF5.0
aF4.0
aF5.0
aF4.0
aF1.0
aF5.0
aF5.0
aF4.0
aF2.0
aF4.0
aF5.0
aF5.0
aF5.0
aF4.0
aF4.0
aF5.0
aF4.0
aF5.0
aF4.0
aF5.0
aF4.0
aF5.0
aF5.0
aF5.0
aF4.0
aF5.0
aF1.0
aF5.0
aF2.0
aF2.0
aF2.0
aF5.0
aF4.0
aF2.0
aF5.0
aF5.0
aF1.0
aF5.0
aF5.0
aF4.0
aF5.0
aF5.0
aF5.0
aF5.0
aF5.0
aF5.0
aF5.0
aF5.0
aF5.0
aF5.0
aF5.0
aF5.0
aF5.0
aF5.0
aF5.0
aF1.0
aF4.0
aF5.0
aF5.0
aF4.0
aF5.0
aF5.0
aF5.0
aF4.0
aF5.0
aF5.0
aF5.0
aF5.0
aF4.0
aF5.0
aF5.0
aF4.0
aF1.0
aF4.0
aF5.0
aF4.0
aF5.0
aF2.0
aF1.0
aF5.0
aF5.0
aF1.0
aF2.0
aF5.0
aF5.0
aF5.0
aF5.0
aF5.0
aF4.0
aF2.0
aF4.0
aF1.0
aF4.0
aF2.0
aF5.0
aF5.0
aF4.0
aF5.0
aF1.0
aF1.0
aF4.0
aF5.0
aF5.0
aF5.0
aF2.0
aF5.0
aF5.0
aF5.0
aF5.0
aF1.0
aF4.0
aF5.0
aF4.0
aF5.0
aF5.0
aF5.0
aF5.0
aF1.0
aF4.0
aF5.0
aF5.0
aF1.0
aF5.0
aF1.0
aF1.0
aF5.0
aF5.0
aF4.0
aF2.0
aF1.0
aF4.0
aF5.0
aF4.0
aF4.0
aF4.0
aF4.0
aF1.0
aF5.0
aF4.0
aF4.0
aF5.0
aF4.0
aF5.0
aF4.0
aF5.0
aF5.0
aF5.0
aF5.0
aF5.0
aF5.0
aF5.0
aF5.0
aF1.0
aF5.0
aF5.0
aF5.0
aF5.0
aF4.0
aF4.0
aF5.0
aF5.0
aF2.0
aF1.0
aF4.0
aF4.0
aF4.0
aF4.0
aF2.0
aF5.0
aF4.0
aF5.0
aF2.0
aF4.0
aF5.0
aF5.0
aF4.0
aF5.0
aF5.0
aF5.0
aF4.0
aF5.0
aF1.0
aF4.0
aF2.0
aF1.0
aF5.0
aF5.0
aF5.0
aF5.0
aF5.0
aF5.0
aF5.0
aF5.0
aF5.0
aF5.0
aF2.0
aF2.0
aF4.0
aF1.0
aF4.0
aF4.0
aF5.0
aF5.0
aF5.0
aF4.0
aF4.0
aF5.0
aF5.0
aF5.0
aF2.0
aF1.0
aF4.0
aF2.0
aF5.0
aF1.0
aF1.0
aF4.0
aF1.0
aF1.0
aF5.0
aF5.0
aF5.0
aF1.0
aF5.0
aF4.0
aF5.0
aF5.0
aF1.0
aF5.0
aF5.0
aF5.0
aF1.0
aF5.0
aF1.0
aF4.0
aF5.0
aF1.0
aF1.0
aF1.0
aF1.0
aF5.0
aF5.0
aF5.0
aF5.0
aF5.0
aF5.0
aF5.0
aF4.0
aF5.0
aF1.0
aF5.0
aF5.0
aF4.0
aF5.0
aF5.0
aF5.0
aF4.0
aF4.0
aF5.0
aF5.0
aF5.0
aF4.0
aF5.0
aF4.0
aF4.0
aF4.0
aF5.0
aF5.0
aF5.0
aF4.0
aF5.0
aF5.0
aF5.0
aF5.0
aF5.0
aF4.0
aF2.0
aF4.0
aF5.0
aF5.0
aF5.0
aF2.0
aF1.0
aF5.0
aF5.0
aF5.0
aF5.0
aF4.0
aF1.0
aF1.0
aF1.0
aF1.0
aF1.0
aF5.0
aF5.0
aF5.0
aF5.0
aF4.0
aF5.0
aF5.0
aF5.0
aF4.0
aF5.0
aF5.0
aF5.0
aF4.0
aF5.0
aF5.0
aF5.0
aF1.0
aF1.0
aF1.0
aF5.0
aF5.0
aF2.0
aF5.0
aF4.0
aF5.0
aF5.0
aF5.0
aF5.0
aF4.0
aF1.0
aF4.0
aF5.0
aF4.0
aF4.0
aF1.0
aF5.0
aF5.0
aF5.0
aF4.0
aF5.0
aF5.0
aF5.0
aF5.0
aF1.0
aF1.0
aF5.0
aF5.0
aF4.0
aF4.0
aF4.0
aF4.0
aF5.0
aF4.0
aF1.0
aF1.0
aF1.0
aF5.0
aF5.0
aF1.0
aF1.0
aF1.0
aF4.0
aF1.0
aF5.0
aF5.0
aF5.0
aF5.0
aF1.0
aF5.0
aF5.0
aF1.0
aF4.0
aF1.0
aF5.0
aF4.0
aF5.0
aF5.0
aF5.0
aF5.0
aF5.0
aF4.0
aF5.0
aF5.0
aF5.0
aF1.0
aF5.0
aF5.0
aF5.0
aF5.0
aF5.0
aF5.0
aF5.0
aF5.0
aF5.0
aF5.0
aF4.0
aF5.0
aF4.0
aF5.0
aF5.0
aF5.0
aF5.0
aF5.0
aF4.0
aF5.0
aF1.0
aF5.0
aF4.0
aF5.0
aF5.0
aF4.0
aF5.0
aF1.0
aF1.0
aF1.0
aF4.0
aF1.0
aF2.0
aF4.0
aF5.0
aF5.0
aF1.0
aF5.0
aF5.0
aF5.0
aF1.0
aF4.0
aF2.0
aF5.0
aF5.0
aF4.0
aF5.0
aF5.0
aF5.0
aF1.0
aF5.0
aF4.0
aF1.0
aF5.0
aF5.0
aF4.0
aF5.0
aF5.0
aF4.0
aF5.0
aF5.0
aF5.0
aF5.0
aF4.0
aF5.0
aF5.0
aF5.0
aF5.0
aF4.0
aF5.0
aF4.0
aF4.0
aF5.0
aF5.0
aF5.0
aF1.0
aF5.0
aF5.0
aF5.0
aF4.0
aF4.0
aF4.0
aF5.0
aF5.0
aF5.0
aF5.0
aF5.0
aF4.0
aF4.0
aF1.0
aF5.0
aF4.0
aF4.0
aF4.0
aF4.0
aF5.0
aF5.0
aF5.0
aF5.0
aF5.0
aF5.0
aF5.0
aF5.0
aF5.0
aF5.0
aF4.0
aF1.0
aF5.0
aF5.0
aF1.0
aF5.0
aF2.0
aF5.0
aF5.0
aF5.0
aF1.0
aF5.0
aF4.0
aF4.0
aF4.0
aF5.0
aF5.0
aF5.0
aF5.0
aF5.0
aF5.0
aF1.0
aF5.0
aF4.0
aF1.0
aF4.0
aF5.0
aF5.0
aF5.0
aF1.0
aF1.0
aF1.0
aF4.0
aF2.0
aF4.0
aF5.0
aF5.0
aF5.0
aF5.0
aF5.0
aF5.0
aF1.0
aF5.0
aF5.0
aF1.0
aF4.0
aF5.0
aF5.0
aF5.0
aF5.0
aF1.0
aF5.0
aF4.0
aF5.0
aF5.0
aF4.0
aF5.0
aF5.0
aF5.0
aF4.0
aF5.0
aF5.0
aF4.0
aF4.0
aF5.0
aF5.0
aF2.0
aF1.0
aF4.0
aF4.0
aF4.0
aF5.0
aF5.0
aF5.0
aF5.0
aF5.0
aF5.0
aF5.0
aF5.0
aF5.0
aF5.0
aF5.0
aF5.0
aF4.0
aF4.0
aF4.0
aF5.0
aF4.0
aF5.0
aF4.0
aF2.0
aF5.0
aF1.0
aF5.0
aF1.0
aF1.0
aF5.0
aF4.0
aF5.0
aF5.0
aF2.0
aF5.0
aF5.0
aF5.0
aF1.0
aF1.0
aF1.0
aF4.0
aF4.0
aF5.0
aF4.0
aF5.0
aF5.0
aF5.0
aF5.0
aF4.0
aF5.0
aF2.0
aF5.0
aF5.0
aF5.0
aF1.0
aF1.0
aF1.0
aF5.0
aF5.0
aF5.0
aF1.0
aF4.0
aF4.0
aF5.0
aF1.0
aF1.0
aF2.0
aF2.0
aF5.0
aF4.0
aF5.0
aF1.0
aF5.0
aF5.0
aF5.0
aF5.0
aF1.0
aF1.0
aF5.0
aF4.0
aF5.0
aF5.0
aF4.0
aF5.0
aF5.0
aF5.0
aF5.0
aF5.0
aF5.0
aF4.0
aF5.0
aF2.0
aF5.0
aF5.0
aF5.0
aF5.0
aF5.0
aF5.0
aF5.0
aF4.0
aF5.0
aF5.0
aF4.0
aF4.0
aF5.0
aF5.0
aF5.0
aF5.0
aF5.0
aF5.0
aF4.0
aF5.0
aF4.0
aF5.0
aF5.0
aF4.0
aF5.0
aF5.0
aF5.0
aF5.0
aF4.0
aF5.0
aF4.0
aF5.0
aF5.0
aF1.0
aF5.0
aF4.0
aF4.0
aF1.0
aF5.0
aF5.0
aF5.0
aF5.0
aF4.0
aF5.0
aF5.0
aF5.0
aF5.0
aF4.0
aF4.0
aF2.0
aF1.0
aF1.0
aF5.0
aF5.0
aF5.0
aF5.0
aF5.0
aF5.0
aF1.0
aF4.0
aF5.0
aF5.0
aF5.0
aF5.0
aF5.0
aF1.0
aF1.0
aF4.0
aF1.0
aF1.0
aF5.0
aF5.0
aF2.0
aF2.0
aF4.0
aF1.0
aF1.0
aF2.0
aF2.0
aF5.0
aF5.0
aF5.0
aF2.0
aF4.0
aF1.0
aF5.0
aF5.0
aF5.0
aF5.0
aF5.0
aF5.0
aF5.0
aF5.0
aF5.0
aF4.0
aF4.0
aF1.0
aF5.0
aF5.0
aF5.0
aF1.0
aF5.0
aF5.0
aF1.0
aF4.0
aF5.0
aF4.0
aF5.0
aF5.0
aF5.0
aF5.0
aF2.0
aF4.0
aF1.0
aF5.0
aF5.0
aF5.0
aF4.0
aF5.0
aF5.0
aF5.0
aF5.0
aF5.0
aF5.0
aF5.0
aF5.0
aF5.0
aF5.0
aF5.0
aF5.0
aF5.0
aF5.0
aF5.0
aF5.0
aF5.0
aF5.0
aF4.0
aF4.0
aF5.0
aF5.0
aF5.0
aF5.0
aF5.0
aF5.0
aF2.0
aF5.0
aF5.0
aF4.0
aF4.0
aF4.0
aF2.0
aF4.0
aF4.0
aF1.0
aF1.0
aF5.0
aF2.0
aF5.0
aF5.0
aF4.0
aF5.0
aF5.0
aF5.0
aF5.0
aF5.0
aF5.0
aF5.0
aF4.0
aF5.0
aF5.0
aF5.0
aF1.0
aF1.0
aF1.0
aF1.0
aF1.0
aF1.0
aF1.0
aF1.0
aF5.0
aF5.0
aF4.0
aF5.0
aF5.0
aF5.0
aF5.0
aF5.0
aF5.0
aF5.0
aF5.0
aF5.0
aF4.0
aF4.0
aF5.0
aF4.0
aF5.0
aF2.0
aF5.0
aF4.0
aF4.0
aF1.0
aF2.0
aF4.0
aF5.0
aF5.0
aF4.0
aF4.0
aF4.0
aF5.0
aF4.0
aF4.0
aF1.0
aF5.0
aF5.0
aF5.0
aF5.0
aF1.0
aF4.0
aF5.0
aF5.0
aF5.0
aF1.0
aF2.0
aF5.0
aF5.0
aF5.0
aF5.0
aF5.0
aF5.0
aF1.0
aF4.0
aF2.0
aF5.0
aF5.0
aF1.0
aF5.0
aF4.0
aF5.0
aF5.0
aF1.0
aF1.0
aF4.0
aF1.0
aF4.0
aF5.0
aF1.0
aF4.0
aF5.0
aF1.0
aF4.0
aF5.0
aF5.0
aF5.0
aF5.0
aF4.0
aF1.0
aF4.0
aF4.0
aF1.0
aF1.0
aF1.0
aF1.0
aF1.0
aF1.0
aF1.0
aF1.0
aF1.0
aF5.0
aF5.0
aF5.0
aF5.0
aF4.0
aF5.0
aF5.0
aF5.0
aF5.0
aF5.0
aF5.0
aF2.0
aF5.0
aF4.0
aF1.0
aF5.0
aF5.0
aF5.0
aF5.0
aF5.0
aF5.0
aF4.0
aF5.0
aF4.0
aF5.0
aF5.0
aF5.0
aF1.0
aF4.0
aF5.0
aF5.0
aF5.0
aF4.0
aF5.0
aF4.0
aF4.0
aF2.0
aF1.0
aF5.0
aF1.0
aF5.0
aF4.0
aF5.0
aF5.0
aF1.0
aF5.0
aF5.0
aF5.0
aF4.0
aF4.0
aF2.0
aF4.0
aF4.0
aF5.0
aF5.0
aF4.0
aF4.0
aF1.0
aF5.0
aF5.0
aF1.0
aF2.0
aF2.0
aF4.0
aF5.0
aF5.0
aF5.0
aF5.0
aF4.0
aF1.0
aF5.0
aF4.0
aF5.0
aF5.0
aF5.0
aF5.0
aF5.0
aF5.0
aF4.0
aF5.0
aF4.0
aF1.0
aF2.0
aF5.0
aF5.0
aF4.0
aF4.0
aF4.0
aF5.0
aF4.0
aF4.0
aF4.0
aF5.0
aF5.0
aF4.0
aF5.0
aF1.0
aF5.0
aF1.0
aF1.0
aF5.0
aF5.0
aF5.0
aF5.0
aF4.0
aF4.0
aF1.0
aF4.0
aF4.0
aF5.0
aF5.0
aF5.0
aF5.0
aF5.0
aF4.0
aF5.0
aF4.0
aF5.0
aF1.0
aF1.0
aF4.0
aF5.0
aF2.0
aF2.0
aF5.0
aF4.0
aF5.0
aF4.0
aF2.0
aF5.0
aF2.0
aF4.0
aF4.0
aF4.0
aF4.0
aF5.0
aF5.0
aF5.0
aF1.0
aF5.0
aF2.0
aF5.0
aF4.0
aF4.0
aF5.0
aF2.0
aF5.0
aF5.0
aF5.0
aF4.0
aF4.0
aF5.0
aF5.0
aF4.0
aF5.0
aF5.0
aF5.0
aF2.0
aF4.0
aF2.0
aF5.0
aF5.0
aF5.0
aF5.0
aF4.0
aF5.0
aF4.0
aF5.0
aF4.0
aF4.0
aF5.0
aF4.0
aF5.0
aF5.0
aF1.0
aF4.0
aF5.0
aF5.0
aF4.0
aF5.0
aF2.0
aF5.0
aF5.0
aF5.0
aF5.0
aF4.0
aF5.0
aF4.0
aF1.0
aF5.0
aF2.0
aF5.0
aF4.0
aF1.0
aF5.0
aF2.0
aF1.0
aF5.0
aF1.0
aF1.0
aF2.0
aF5.0
aF4.0
aF4.0
aF5.0
aF5.0
aF5.0
aF5.0
aF5.0
aF4.0
aF4.0
aF4.0
aF4.0
aF5.0
aF5.0
aF5.0
aF1.0
aF5.0
aF5.0
aF5.0
aF5.0
aF5.0
aF4.0
aF4.0
aF4.0
aF4.0
aF4.0
aF5.0
aF5.0
aF5.0
aF5.0
aF5.0
aF4.0
aF4.0
aF5.0
aF4.0
aF5.0
aF5.0
aF5.0
aF4.0
aF5.0
aF5.0
aF5.0
aF5.0
aF4.0
aF4.0
aF5.0
aF5.0
aF5.0
aF5.0
aF5.0
aF5.0
aF5.0
aF5.0
aF4.0
aF5.0
aF5.0
aF5.0
aF5.0
aF5.0
aF4.0
aF5.0
aF5.0
aF5.0
aF4.0
aF2.0
aF2.0
aF4.0
aF4.0
aF5.0
aF4.0
aF5.0
aF5.0
aF5.0
aF5.0
aF5.0
aF1.0
aF5.0
aF5.0
aF1.0
aF5.0
aF5.0
aF4.0
aF5.0
aF5.0
aF4.0
aF5.0
aF5.0
aF5.0
aF5.0
aF5.0
aF4.0
aF5.0
aF4.0
aF1.0
aF2.0
aF4.0
aF5.0
aF2.0
aF1.0
aF2.0
aF1.0
aF5.0
aF2.0
aF5.0
aF4.0
aF5.0
aF5.0
aF5.0
aF5.0
aF4.0
aF5.0
aF5.0
aF5.0
aF4.0
aF4.0
aF1.0
aF5.0
aF5.0
aF5.0
aF5.0
aF2.0
aF1.0
aF1.0
aF1.0
aF4.0
aF5.0
aF1.0
aF4.0
aF4.0
aF5.0
aF5.0
aF4.0
aF5.0
aF5.0
aF5.0
aF5.0
aF4.0
aF5.0
aF5.0
aF5.0
aF5.0
aF4.0
aF5.0
aF5.0
aF5.0
aF5.0
aF5.0
aF4.0
aF5.0
aF5.0
aF5.0
aF5.0
aF4.0
aF4.0
aF4.0
aF4.0
aF1.0
aF5.0
aF5.0
aF5.0
aF4.0
aF5.0
aF1.0
aF1.0
aF5.0
aF1.0
aF5.0
aF5.0
aF5.0
aF5.0
aF5.0
aF5.0
aF5.0
aF4.0
aF1.0
aF5.0
aF1.0
aF4.0
aF4.0
aF5.0
aF5.0
aF1.0
aF1.0
aF4.0
aF2.0
aF1.0
aF5.0
aF4.0
aF5.0
aF5.0
aF5.0
aF5.0
aF5.0
aF5.0
aF5.0
aF5.0
aF1.0
aF4.0
aF4.0
aF5.0
aF4.0
aF4.0
aF4.0
aF5.0
aF5.0
aF4.0
aF5.0
aF5.0
aF1.0
aF2.0
aF5.0
aF5.0
aF5.0
aF1.0
aF5.0
aF5.0
aF5.0
aF5.0
aF5.0
aF1.0
aF5.0
aF5.0
aF5.0
aF4.0
aF5.0
aF4.0
aF5.0
aF5.0
aF1.0
aF5.0
aF4.0
aF5.0
aF5.0
aF4.0
aF5.0
aF5.0
aF5.0
aF4.0
aF4.0
aF5.0
aF5.0
aF5.0
aF5.0
aF4.0
aF5.0
aF4.0
aF5.0
aF5.0
aF4.0
aF5.0
aF5.0
aF1.0
aF5.0
aF5.0
aF1.0
aF2.0
aF2.0
aF4.0
aF4.0
aF5.0
aF1.0
aF1.0
aF5.0
aF5.0
aF5.0
aF5.0
aF5.0
aF5.0
aF5.0
aF5.0
aF5.0
aF5.0
aF2.0
aF5.0
aF5.0
aF5.0
aF4.0
aF2.0
aF4.0
aF1.0
aF5.0
aF1.0
aF1.0
aF1.0
aF4.0
aF4.0
aF5.0
aF4.0
aF1.0
aF4.0
aF5.0
aF4.0
aF5.0
aF5.0
aF5.0
aF5.0
aF5.0
aF5.0
aF5.0
aF1.0
aF5.0
aF5.0
aF5.0
aF5.0
aF5.0
aF5.0
aF5.0
aF1.0
aF5.0
aF5.0
aF5.0
aF5.0
aF5.0
aF5.0
aF4.0
aF4.0
aF4.0
aF5.0
aF4.0
aF2.0
aF5.0
aF1.0
aF5.0
aF5.0
aF5.0
aF5.0
aF5.0
aF4.0
aF5.0
aF5.0
aF5.0
aF1.0
aF1.0
aF5.0
aF5.0
aF5.0
aF4.0
aF4.0
aF5.0
aF5.0
aF5.0
aF5.0
aF2.0
aF2.0
aF5.0
aF5.0
aF2.0
aF5.0
aF4.0
aF5.0
aF5.0
aF5.0
aF4.0
aF5.0
aF1.0
aF5.0
aF5.0
aF5.0
aF1.0
aF5.0
aF2.0
aF2.0
aF4.0
aF1.0
aF4.0
aF1.0
aF1.0
aF1.0
aF5.0
aF5.0
aF4.0
aF5.0
aF5.0
aF4.0
aF5.0
aF5.0
aF5.0
aF4.0
aF4.0
aF1.0
aF2.0
aF5.0
aF5.0
aF4.0
aF5.0
aF4.0
aF4.0
aF5.0
aF4.0
aF5.0
aF4.0
aF5.0
aF5.0
aF5.0
aF5.0
aF5.0
aF4.0
aF4.0
aF4.0
aF5.0
aF4.0
aF1.0
aF5.0
aF5.0
aF5.0
aF5.0
aF4.0
aF4.0
aF5.0
aF5.0
aF5.0
aF5.0
aF5.0
aF2.0
aF2.0
aF4.0
aF1.0
aF5.0
aF1.0
aF4.0
aF5.0
aF1.0
aF5.0
aF5.0
aF5.0
aF5.0
aF5.0
aF5.0
aF4.0
aF5.0
aF5.0
aF4.0
aF4.0
aF4.0
aF4.0
aF4.0
aF4.0
aF5.0
aF5.0
aF1.0
aF1.0
aF5.0
aF5.0
aF2.0
aF4.0
aF4.0
aF4.0
aF5.0
aF5.0
aF4.0
aF4.0
aF4.0
aF5.0
aF5.0
aF5.0
aF5.0
aF5.0
aF5.0
aF5.0
aF1.0
aF5.0
aF5.0
aF5.0
aF5.0
aF4.0
aF1.0
aF1.0
aF5.0
aF2.0
aF4.0
aF5.0
aF1.0
aF4.0
aF1.0
aF5.0
aF1.0
aF4.0
aF5.0
aF1.0
aF5.0
aF5.0
aF5.0
aF5.0
aF4.0
aF5.0
aF5.0
aF5.0
aF4.0
aF4.0
aF4.0
aF2.0
aF2.0
aF5.0
aF4.0
aF2.0
aF4.0
aF1.0
aF5.0
aF4.0
aF4.0
aF5.0
aF4.0
aF4.0
aF5.0
aF5.0
aF5.0
aF5.0
aF4.0
aF4.0
aF5.0
aF1.0
aF5.0
aF5.0
aF4.0
aF5.0
aF1.0
aF4.0
aF5.0
aF5.0
aF1.0
aF1.0
aF1.0
aF5.0
aF4.0
aF2.0
aF2.0
aF5.0
aF4.0
aF5.0
aF5.0
aF4.0
aF5.0
aF5.0
aF2.0
aF5.0
aF5.0
aF4.0
aF5.0
aF5.0
aF4.0
aF2.0
aF5.0
aF5.0
aF5.0
aF5.0
aF5.0
aF5.0
aF2.0
aF5.0
aF4.0
aF1.0
aF2.0
aF5.0
aF4.0
aF5.0
aF1.0
aF5.0
aF5.0
aF5.0
aF1.0
aF5.0
aF4.0
aF5.0
aF4.0
aF5.0
aF5.0
aF5.0
aF5.0
aF4.0
aF5.0
aF5.0
aF4.0
aF5.0
aF5.0
aF5.0
aF4.0
aF5.0
aF5.0
aF5.0
aF5.0
aF5.0
aF5.0
aF5.0
aF5.0
aF5.0
aF5.0
aF5.0
aF5.0
aF1.0
aF4.0
aF4.0
aF5.0
aF2.0
aF5.0
aF5.0
aF5.0
aF4.0
aF5.0
aF5.0
aF5.0
aF4.0
aF5.0
aF5.0
aF5.0
aF4.0
aF5.0
aF4.0
aF5.0
aF5.0
aF5.0
aF1.0
aF4.0
aF5.0
aF5.0
aF1.0
aF5.0
aF4.0
aF4.0
aF2.0
aF4.0
aF5.0
aF5.0
aF4.0
aF4.0
aF5.0
aF4.0
aF5.0
aF5.0
aF4.0
aF1.0
aF5.0
aF5.0
aF5.0
aF1.0
aF1.0
aF5.0
aF4.0
aF1.0
aF5.0
aF5.0
aF5.0
aF5.0
aF4.0
aF4.0
aF4.0
aF2.0
aF2.0
aF5.0
aF5.0
aF2.0
aF1.0
aF4.0
aF4.0
aF2.0
aF1.0
aF5.0
aF5.0
aF5.0
aF5.0
aF5.0
aF4.0
aF5.0
aF5.0
aF4.0
aF4.0
aF5.0
aF5.0
aF5.0
aF5.0
aF5.0
aF5.0
aF5.0
aF4.0
aF4.0
aF4.0
aF4.0
aF4.0
aF5.0
aF1.0
aF1.0
aF4.0
aF4.0
aF5.0
aF5.0
aF5.0
aF5.0
aF5.0
aF5.0
aF2.0
aF5.0
aF5.0
aF5.0
aF5.0
aF5.0
aF5.0
aF5.0
aF5.0
aF4.0
aF5.0
aF4.0
aF2.0
aF4.0
aF5.0
aF5.0
aF5.0
aF5.0
aF4.0
aF4.0
aF4.0
aF5.0
aF5.0
aF4.0
aF5.0
aF4.0
aF5.0
aF4.0
aF5.0
aF4.0
aF5.0
aF5.0
aF5.0
aF4.0
aF5.0
aF1.0
aF5.0
aF4.0
aF5.0
aF5.0
aF5.0
aF5.0
aF5.0
aF5.0
aF5.0
aF5.0
aF5.0
aF5.0
aF5.0
aF4.0
aF5.0
aF5.0
aF4.0
aF5.0
aF1.0
aF2.0
aF1.0
aF1.0
aF4.0
aF5.0
aF5.0
aF5.0
aF5.0
aF5.0
aF4.0
aF4.0
aF4.0
aF5.0
aF4.0
aF1.0
aF4.0
aF1.0
aF5.0
aF1.0
aF4.0
aF4.0
aF4.0
aF4.0
aF4.0
aF5.0
aF5.0
aF4.0
aF4.0
aF1.0
aF1.0
aF1.0
aF1.0
aF2.0
aF2.0
aF4.0
aF4.0
aF4.0
aF5.0
aF5.0
aF5.0
aF5.0
aF5.0
aF4.0
aF5.0
aF5.0
aF5.0
aF4.0
aF5.0
aF5.0
aF5.0
aF5.0
aF5.0
aF5.0
aF5.0
aF4.0
aF5.0
aF5.0
aF5.0
aF4.0
aF5.0
aF5.0
aF5.0
aF4.0
aF5.0
aF4.0
aF1.0
aF2.0
aF4.0
aF5.0
aF5.0
aF5.0
aF5.0
aF5.0
aF4.0
aF4.0
aF2.0
aF5.0
aF2.0
aF5.0
aF5.0
aF4.0
aF5.0
aF5.0
aF5.0
aF5.0
aF5.0
aF2.0
aF4.0
aF5.0
aF5.0
aF4.0
aF4.0
aF4.0
aF5.0
aF5.0
aF5.0
aF2.0
aF4.0
aF4.0
aF5.0
aF4.0
aF5.0
aF4.0
aF5.0
aF2.0
aF5.0
aF5.0
aF4.0
aF4.0
aF5.0
aF5.0
aF5.0
aF5.0
aF5.0
aF5.0
aF4.0
aF4.0
aF5.0
aF5.0
aF4.0
aF5.0
aF5.0
aF5.0
aF5.0
aF4.0
aF4.0
aF5.0
aF5.0
aF5.0
aF5.0
aF5.0
aF5.0
aF5.0
aF5.0
aF5.0
aF5.0
aF5.0
aF5.0
aF4.0
aF5.0
aF5.0
aF4.0
aF2.0
aF5.0
aF4.0
aF5.0
aF5.0
aF4.0
aF5.0
aF4.0
aF5.0
aF5.0
aF5.0
aF5.0
aF5.0
aF2.0
aF4.0
aF2.0
aF2.0
aF4.0
aF1.0
aF2.0
aF1.0
aF4.0
aF5.0
aF4.0
aF4.0
aF5.0
aF5.0
aF5.0
aF4.0
aF4.0
aF5.0
aF4.0
aF5.0
aF5.0
aF5.0
aF5.0
aF4.0
aF5.0
aF5.0
aF5.0
aF5.0
aF4.0
aF5.0
aF5.0
aF5.0
aF5.0
aF5.0
aF1.0
aF1.0
aF1.0
aF2.0
aF4.0
aF5.0
aF1.0
aF4.0
aF1.0
aF5.0
aF4.0
aF2.0
aF4.0
aF2.0
aF4.0
aF5.0
aF4.0
aF5.0
aF5.0
aF5.0
aF4.0
aF5.0
aF4.0
aF5.0
aF5.0
aF5.0
aF4.0
aF5.0
aF1.0
aF5.0
aF5.0
aF4.0
aF4.0
aF5.0
aF4.0
aF1.0
aF4.0
aF5.0
aF5.0
aF1.0
aF5.0
aF1.0
aF5.0
aF1.0
aF1.0
aF4.0
aF4.0
aF4.0
aF1.0
aF5.0
aF4.0
aF2.0
aF5.0
aF5.0
aF5.0
aF4.0
aF4.0
aF1.0
aF1.0
aF5.0
aF5.0
aF1.0
aF2.0
aF5.0
aF1.0
aF1.0
aF1.0
aF1.0
aF1.0
aF1.0
aF1.0
aF4.0
aF2.0
aF5.0
aF5.0
aF1.0
aF5.0
aF5.0
aF5.0
aF5.0
aF5.0
aF5.0
aF2.0
aF1.0
aF1.0
aF4.0
aF4.0
aF4.0
aF5.0
aF4.0
aF5.0
aF1.0
aF4.0
aF5.0
aF1.0
aF1.0
aF5.0
aF1.0
aF5.0
aF4.0
aF5.0
aF4.0
aF1.0
aF2.0
aF4.0
aF4.0
aF5.0
aF5.0
aF1.0
aF2.0
aF1.0
aF1.0
aF5.0
aF5.0
aF5.0
aF4.0
aF4.0
aF4.0
aF4.0
aF4.0
aF5.0
aF5.0
aF4.0
aF5.0
aF5.0
aF5.0
aF5.0
aF5.0
aF5.0
aF5.0
aF1.0
aF4.0
aF1.0
aF5.0
aF5.0
aF5.0
aF4.0
aF2.0
aF4.0
aF5.0
aF5.0
aF5.0
aF4.0
aF5.0
aF4.0
aF5.0
aF5.0
aF5.0
aF5.0
aF5.0
aF4.0
aF1.0
aF4.0
aF1.0
aF1.0
aF5.0
aF1.0
aF1.0
aF5.0
aF5.0
aF5.0
aF5.0
aF5.0
aF5.0
aF5.0
aF5.0
aF5.0
aF5.0
aF4.0
aF5.0
aF4.0
aF5.0
aF4.0
aF5.0
aF5.0
aF5.0
aF5.0
aF5.0
aF5.0
aF4.0
aF5.0
aF4.0
aF1.0
aF5.0
aF5.0
aF5.0
aF4.0
aF1.0
aF4.0
aF5.0
aF5.0
aF5.0
aF1.0
aF4.0
aF1.0
aF5.0
aF5.0
aF5.0
aF4.0
aF5.0
aF5.0
aF1.0
aF5.0
aF5.0
aF5.0
aF5.0
aF5.0
aF5.0
aF5.0
aF2.0
aF5.0
aF1.0
aF5.0
aF5.0
aF1.0
aF1.0
aF2.0
aF5.0
aF5.0
aF5.0
aF1.0
aF5.0
aF5.0
aF4.0
aF5.0
aF5.0
aF5.0
aF5.0
aF5.0
aF4.0
aF5.0
aF5.0
aF4.0
aF1.0
aF2.0
aF5.0
aF1.0
aF1.0
aF1.0
aF1.0
aF5.0
aF5.0
aF5.0
aF2.0
aF5.0
aF5.0
aF5.0
aF4.0
aF5.0
aF2.0
aF4.0
aF4.0
aF4.0
aF5.0
aF5.0
aF5.0
aF5.0
aF1.0
aF5.0
aF5.0
aF5.0
aF5.0
aF4.0
aF5.0
aF4.0
aF1.0
aF4.0
aF5.0
aF5.0
aF4.0
aF4.0
aF5.0
aF4.0
aF5.0
aF4.0
aF4.0
aF4.0
aF2.0
aF5.0
aF1.0
aF1.0
aF5.0
aF5.0
aF5.0
aF2.0
aF5.0
aF5.0
aF4.0
aF5.0
aF4.0
aF5.0
aF2.0
aF4.0
aF5.0
aF5.0
aF2.0
aF5.0
aF5.0
aF1.0
aF5.0
aF5.0
aF4.0
aF1.0
aF5.0
aF4.0
aF5.0
aF2.0
aF1.0
aF1.0
aF5.0
aF1.0
aF4.0
aF1.0
aF2.0
aF5.0
aF5.0
aF2.0
aF5.0
aF5.0
aF5.0
aF5.0
aF1.0
aF1.0
aF1.0
aF4.0
aF5.0
aF5.0
aF5.0
aF5.0
aF5.0
aF5.0
aF5.0
aF5.0
aF5.0
aF5.0
aF5.0
aF5.0
aF5.0
aF5.0
aF5.0
aF5.0
aF1.0
aF5.0
aF1.0
aF1.0
aF4.0
aF4.0
aF1.0
aF1.0
aF5.0
aF4.0
aF1.0
aF5.0
aF5.0
aF5.0
aF4.0
aF5.0
aF5.0
aF1.0
aF4.0
aF4.0
aF1.0
aF5.0
aF5.0
aF5.0
aF5.0
aF5.0
aF4.0
aF4.0
aF5.0
aF4.0
aF5.0
aF5.0
aF4.0
aF4.0
aF2.0
aF5.0
aF4.0
aF4.0
aF2.0
aF1.0
aF5.0
aF4.0
aF4.0
aF5.0
aF5.0
aF5.0
aF5.0
aF1.0
aF4.0
aF1.0
aF5.0
aF5.0
aF2.0
aF2.0
aF5.0
aF5.0
aF4.0
aF5.0
aF5.0
aF5.0
aF5.0
aF4.0
aF1.0
aF4.0
aF4.0
aF5.0
aF1.0
aF5.0
aF5.0
aF5.0
aF4.0
aF5.0
aF4.0
aF4.0
aF5.0
aF5.0
aF4.0
aF2.0
aF5.0
aF5.0
aF5.0
aF5.0
aF5.0
aF5.0
aF4.0
aF2.0
aF5.0
aF5.0
aF2.0
aF1.0
aF2.0
aF1.0
aF5.0
aF5.0
aF4.0
aF5.0
aF5.0
aF5.0
aF5.0
aF5.0
aF4.0
aF4.0
aF4.0
aF5.0
aF5.0
aF5.0
aF5.0
aF1.0
aF1.0
aF1.0
aF4.0
aF5.0
aF4.0
aF5.0
aF1.0
aF5.0
aF5.0
aF4.0
aF2.0
aF5.0
aF5.0
aF2.0
aF5.0
aF5.0
aF5.0
aF5.0
aF5.0
aF5.0
aF5.0
aF4.0
aF5.0
aF5.0
aF5.0
aF4.0
aF5.0
aF5.0
aF5.0
aF5.0
aF5.0
aF5.0
aF4.0
aF4.0
aF5.0
aF4.0
aF5.0
aF5.0
aF5.0
aF5.0
aF5.0
aF5.0
aF5.0
aF5.0
aF4.0
aF5.0
aF4.0
aF5.0
aF5.0
aF5.0
aF5.0
aF4.0
aF5.0
aF5.0
aF5.0
aF1.0
aF1.0
aF5.0
aF5.0
aF4.0
aF5.0
aF5.0
aF4.0
aF5.0
aF4.0
aF5.0
aF5.0
aF5.0
aF5.0
aF5.0
aF5.0
aF5.0
aF4.0
aF5.0
aF5.0
aF5.0
aF5.0
aF5.0
aF5.0
aF4.0
aF1.0
aF1.0
aF5.0
aF1.0
aF1.0
aF5.0
aF4.0
aF1.0
aF5.0
aF1.0
aF5.0
aF2.0
aF1.0
aF5.0
aF4.0
aF1.0
aF2.0
aF5.0
aF2.0
aF5.0
aF5.0
aF5.0
aF4.0
aF4.0
aF5.0
aF4.0
aF5.0
aF4.0
aF1.0
aF1.0
aF5.0
aF5.0
aF5.0
aF5.0
aF5.0
aF5.0
aF5.0
aF5.0
aF2.0
aF4.0
aF2.0
aF5.0
aF4.0
aF2.0
aF4.0
aF4.0
aF4.0
aF5.0
aF5.0
aF4.0
aF5.0
aF5.0
aF5.0
aF5.0
aF4.0
aF5.0
aF5.0
aF5.0
aF5.0
aF4.0
aF5.0
aF5.0
aF5.0
aF5.0
aF5.0
aF1.0
aF5.0
aF5.0
aF5.0
aF5.0
aF5.0
aF4.0
aF5.0
aF4.0
aF5.0
aF5.0
aF5.0
aF5.0
aF4.0
aF5.0
aF5.0
aF5.0
aF5.0
aF4.0
aF4.0
aF4.0
aF4.0
aF5.0
aF5.0
aF1.0
aF2.0
aF1.0
aF5.0
aF2.0
aF2.0
aF5.0
aF4.0
aF5.0
aF5.0
aF5.0
aF5.0
aF4.0
aF5.0
aF5.0
aF4.0
aF4.0
aF5.0
aF5.0
aF5.0
aF5.0
aF2.0
aF5.0
aF5.0
aF5.0
aF5.0
aF4.0
aF4.0
aF5.0
aF2.0
aF2.0
aF4.0
aF4.0
aF5.0
aF4.0
aF5.0
aF5.0
aF4.0
aF5.0
aF5.0
aF5.0
aF5.0
aF5.0
aF5.0
aF5.0
aF5.0
aF5.0
aF1.0
aF5.0
aF4.0
aF5.0
aF1.0
aF5.0
aF5.0
aF5.0
aF5.0
aF5.0
aF5.0
aF5.0
aF5.0
aF5.0
aF4.0
aF5.0
aF5.0
aF4.0
aF5.0
aF4.0
aF2.0
aF5.0
aF1.0
aF5.0
aF2.0
aF4.0
aF5.0
aF5.0
aF4.0
aF5.0
aF5.0
aF5.0
aF5.0
aF5.0
aF4.0
aF5.0
aF5.0
aF5.0
aF5.0
aF5.0
aF5.0
aF4.0
aF5.0
aF5.0
aF4.0
aF1.0
aF5.0
aF4.0
aF1.0
aF1.0
aF5.0
aF2.0
aF1.0
aF1.0
aF5.0
aF2.0
aF1.0
aF1.0
aF5.0
aF5.0
aF5.0
aF4.0
aF4.0
aF1.0
aF4.0
aF5.0
aF1.0
aF1.0
aF1.0
aF1.0
aF4.0
aF5.0
aF1.0
aF5.0
aF4.0
aF4.0
aF1.0
aF2.0
aF5.0
aF5.0
aF5.0
aF4.0
aF5.0
aF4.0
aF5.0
aF5.0
aF4.0
aF5.0
aF5.0
aF5.0
aF5.0
aF5.0
aF5.0
aF5.0
aF5.0
aF4.0
aF5.0
aF4.0
aF5.0
aF5.0
aF5.0
aF5.0
aF5.0
aF4.0
aF5.0
aF5.0
aF2.0
aF5.0
aF4.0
aF5.0
aF5.0
aF5.0
aF5.0
aF5.0
aF4.0
aF2.0
aF5.0
aF5.0
aF4.0
aF4.0
aF2.0
aF1.0
aF2.0
aF1.0
aF5.0
aF5.0
aF5.0
aF1.0
aF5.0
aF2.0
aF2.0
aF2.0
aF5.0
aF4.0
aF4.0
aF4.0
aF5.0
aF5.0
aF5.0
aF1.0
aF5.0
aF5.0
aF5.0
aF5.0
aF4.0
aF5.0
aF4.0
aF5.0
aF4.0
aF5.0
aF5.0
aF4.0
aF4.0
aF4.0
aF4.0
aF4.0
aF5.0
aF5.0
aF4.0
aF4.0
aF4.0
aF5.0
aF5.0
aF5.0
aF5.0
aF5.0
aF4.0
aF4.0
aF4.0
aF5.0
aF4.0
aF5.0
aF5.0
aF5.0
aF5.0
aF4.0
aF4.0
aF5.0
aF5.0
aF1.0
aF4.0
aF5.0
aF2.0
aF5.0
aF2.0
aF5.0
aF5.0
aF5.0
aF5.0
aF5.0
aF5.0
aF5.0
aF5.0
aF5.0
aF5.0
aF5.0
aF5.0
aF5.0
aF1.0
aF4.0
aF5.0
aF5.0
aF2.0
aF5.0
aF5.0
aF5.0
aF5.0
aF5.0
aF4.0
aF5.0
aF4.0
aF5.0
aF5.0
aF5.0
aF5.0
aF4.0
aF5.0
aF4.0
aF4.0
aF5.0
aF4.0
aF4.0
aF4.0
aF5.0
aF5.0
aF5.0
aF4.0
aF5.0
aF5.0
aF5.0
aF5.0
aF4.0
aF5.0
aF5.0
aF4.0
aF5.0
aF4.0
aF4.0
aF5.0
aF5.0
aF4.0
aF5.0
aF2.0
aF4.0
aF4.0
aF5.0
aF1.0
aF5.0
aF5.0
aF5.0
aF5.0
aF4.0
aF5.0
aF4.0
aF1.0
aF1.0
aF2.0
aF5.0
aF1.0
aF5.0
aF5.0
aF5.0
aF5.0
aF5.0
aF1.0
aF5.0
aF5.0
aF5.0
aF5.0
aF5.0
aF5.0
aF5.0
aF5.0
aF5.0
aF5.0
aF1.0
aF4.0
aF5.0
aF5.0
aF1.0
aF4.0
aF1.0
aF1.0
aF1.0
aF1.0
aF5.0
aF5.0
aF4.0
aF4.0
aF5.0
aF5.0
aF5.0
aF5.0
aF5.0
aF5.0
aF4.0
aF4.0
aF5.0
aF5.0
aF1.0
aF5.0
aF4.0
aF5.0
aF5.0
aF5.0
aF4.0
aF5.0
aF2.0
aF1.0
aF5.0
aF4.0
aF5.0
aF2.0
aF5.0
aF4.0
aF4.0
aF5.0
aF1.0
aF4.0
aF1.0
aF5.0
aF4.0
aF4.0
aF5.0
aF1.0
aF5.0
aF5.0
aF1.0
aF5.0
aF5.0
aF2.0
aF1.0
aF1.0
aF1.0
aF1.0
aF2.0
aF1.0
aF4.0
aF4.0
aF4.0
aF2.0
aF1.0
aF1.0
aF4.0
aF2.0
aF5.0
aF5.0
aF5.0
aF4.0
aF5.0
aF5.0
aF5.0
aF5.0
aF5.0
aF5.0
aF2.0
aF5.0
aF4.0
aF2.0
aF5.0
aF5.0
aF5.0
aF5.0
aF5.0
aF5.0
aF5.0
aF5.0
aF5.0
aF5.0
aF5.0
aF5.0
aF5.0
aF5.0
aF4.0
aF5.0
aF5.0
aF4.0
aF5.0
aF5.0
aF5.0
aF2.0
aF4.0
aF5.0
aF1.0
aF5.0
aF4.0
aF5.0
aF5.0
aF4.0
aF5.0
aF4.0
aF1.0
aF5.0
aF4.0
aF5.0
aF1.0
aF4.0
aF5.0
aF5.0
aF5.0
aF4.0
aF5.0
aF5.0
aF2.0
aF4.0
aF5.0
aF1.0
aF1.0
aF5.0
aF5.0
aF1.0
aF5.0
aF5.0
aF2.0
aF2.0
aF4.0
aF4.0
aF5.0
aF4.0
aF5.0
aF4.0
aF2.0
aF4.0
aF1.0
aF4.0
aF5.0
aF5.0
aF4.0
aF5.0
aF5.0
aF5.0
aF2.0
aF4.0
aF5.0
aF5.0
aF1.0
aF4.0
aF1.0
aF4.0
aF4.0
aF2.0
aF5.0
aF5.0
aF4.0
aF4.0
aF5.0
aF5.0
aF5.0
aF5.0
aF4.0
aF4.0
aF5.0
aF5.0
aF5.0
aF5.0
aF5.0
aF5.0
aF4.0
aF4.0
aF4.0
aF5.0
aF5.0
aF5.0
aF5.0
aF5.0
aF5.0
aF5.0
aF5.0
aF5.0
aF1.0
aF5.0
aF5.0
aF4.0
aF5.0
aF2.0
aF5.0
aF5.0
aF1.0
aF4.0
aF5.0
aF5.0
aF4.0
aF5.0
aF4.0
aF5.0
aF5.0
aF5.0
aF1.0
aF4.0
aF5.0
aF4.0
aF5.0
aF5.0
aF4.0
aF5.0
aF5.0
aF5.0
aF4.0
aF2.0
aF4.0
aF5.0
aF5.0
aF5.0
aF4.0
aF2.0
aF5.0
aF5.0
aF4.0
aF5.0
aF5.0
aF4.0
aF5.0
aF5.0
aF5.0
aF5.0
aF5.0
aF5.0
aF2.0
aF2.0
aF1.0
aF2.0
aF5.0
aF5.0
aF5.0
aF5.0
aF1.0
aF5.0
aF4.0
aF5.0
aF1.0
aF4.0
aF4.0
aF5.0
aF5.0
aF5.0
aF5.0
aF5.0
aF5.0
aF5.0
aF1.0
aF5.0
aF5.0
aF5.0
aF5.0
aF1.0
aF2.0
aF5.0
aF1.0
aF5.0
aF5.0
aF5.0
aF5.0
aF5.0
aF5.0
aF1.0
aF5.0
aF5.0
aF5.0
aF5.0
aF5.0
aF5.0
aF5.0
aF5.0
aF5.0
aF1.0
aF5.0
aF5.0
aF5.0
aF4.0
aF5.0
aF1.0
aF1.0
aF4.0
aF2.0
aF1.0
aF4.0
aF1.0
aF4.0
aF4.0
aF5.0
aF4.0
aF5.0
aF4.0
aF5.0
aF4.0
aF4.0
aF5.0
aF5.0
aF5.0
aF5.0
aF5.0
aF5.0
aF4.0
aF4.0
aF5.0
aF1.0
aF4.0
aF5.0
aF4.0
aF4.0
aF5.0
aF5.0
aF4.0
aF5.0
aF4.0
aF4.0
aF4.0
aF5.0
aF4.0
aF5.0
aF5.0
aF1.0
aF5.0
aF4.0
aF2.0
aF2.0
aF1.0
aF2.0
aF5.0
aF4.0
aF5.0
aF1.0
aF5.0
aF5.0
aF5.0
aF1.0
aF5.0
aF4.0
aF5.0
aF4.0
aF5.0
aF5.0
aF5.0
aF4.0
aF5.0
aF5.0
aF5.0
aF5.0
aF5.0
aF4.0
aF5.0
aF2.0
aF1.0
aF5.0
aF5.0
aF5.0
aF5.0
aF5.0
aF4.0
aF5.0
aF5.0
aF5.0
aF5.0
aF5.0
aF4.0
aF5.0
aF4.0
aF5.0
aF5.0
aF4.0
aF5.0
aF5.0
aF5.0
aF5.0
aF5.0
aF5.0
aF5.0
aF4.0
aF5.0
aF4.0
aF5.0
aF5.0
aF5.0
aF5.0
aF5.0
aF2.0
aF4.0
aF5.0
aF5.0
aF5.0
aF5.0
aF4.0
aF4.0
aF5.0
aF1.0
aF1.0
aF5.0
aF5.0
aF5.0
aF4.0
aF5.0
aF4.0
aF5.0
aF4.0
aF2.0
aF5.0
aF4.0
aF5.0
aF5.0
aF5.0
aF4.0
aF4.0
aF5.0
aF5.0
aF1.0
aF2.0
aF5.0
aF2.0
aF5.0
aF5.0
aF5.0
aF5.0
aF5.0
aF5.0
aF5.0
aF5.0
aF4.0
aF5.0
aF5.0
aF4.0
aF5.0
aF4.0
aF4.0
aF4.0
aF1.0
aF5.0
aF1.0
aF5.0
aF5.0
aF2.0
aF4.0
aF4.0
aF4.0
aF4.0
aF5.0
aF5.0
aF5.0
aF5.0
aF5.0
aF5.0
aF4.0
aF5.0
aF1.0
aF5.0
aF5.0
aF4.0
aF5.0
aF4.0
aF4.0
aF5.0
aF5.0
aF5.0
aF4.0
aF5.0
aF5.0
aF5.0
aF4.0
aF5.0
aF4.0
aF5.0
aF1.0
aF1.0
aF1.0
aF1.0
aF4.0
aF1.0
aF4.0
aF1.0
aF4.0
aF4.0
aF5.0
aF2.0
aF5.0
aF5.0
aF4.0
aF5.0
aF5.0
aF1.0
aF4.0
aF5.0
aF5.0
aF5.0
aF5.0
aF2.0
aF4.0
aF4.0
aF1.0
aF4.0
aF1.0
aF5.0
aF5.0
aF5.0
aF5.0
aF5.0
aF1.0
aF5.0
aF5.0
aF5.0
aF4.0
aF5.0
aF1.0
aF5.0
aF2.0
aF5.0
aF5.0
aF5.0
aF4.0
aF5.0
aF4.0
aF1.0
aF5.0
aF5.0
aF5.0
aF5.0
aF5.0
aF5.0
aF1.0
aF5.0
aF1.0
aF1.0
aF2.0
aF5.0
aF4.0
aF2.0
aF5.0
aF5.0
aF4.0
aF5.0
aF5.0
aF5.0
aF5.0
aF4.0
aF4.0
aF4.0
aF1.0
aF5.0
aF5.0
aF5.0
aF5.0
aF5.0
aF5.0
aF5.0
aF5.0
aF4.0
aF5.0
aF5.0
aF5.0
aF5.0
aF4.0
aF5.0
aF4.0
aF5.0
aF2.0
aF5.0
aF5.0
aF2.0
aF4.0
aF1.0
aF5.0
aF4.0
aF5.0
aF5.0
aF2.0
aF5.0
aF2.0
aF2.0
aF1.0
aF1.0
aF5.0
aF1.0
aF5.0
aF4.0
aF5.0
aF4.0
aF5.0
aF5.0
aF1.0
aF5.0
aF5.0
aF5.0
aF5.0
aF5.0
aF5.0
aF5.0
aF4.0
aF5.0
aF1.0
aF5.0
aF5.0
aF1.0
aF2.0
aF5.0
aF5.0
aF5.0
aF4.0
aF5.0
aF1.0
aF1.0
aF2.0
aF5.0
aF5.0
aF5.0
aF5.0
aF5.0
aF4.0
aF4.0
aF5.0
aF2.0
aF5.0
aF5.0
aF5.0
aF5.0
aF5.0
aF4.0
aF5.0
aF5.0
aF5.0
aF5.0
aF5.0
aF4.0
aF5.0
aF2.0
aF1.0
aF5.0
aF5.0
aF5.0
aF5.0
aF5.0
aF4.0
aF5.0
aF5.0
aF5.0
aF4.0
aF5.0
aF4.0
aF5.0
aF4.0
aF4.0
aF5.0
aF4.0
aF5.0
aF4.0
aF5.0
aF1.0
aF4.0
aF5.0
aF5.0
aF4.0
aF5.0
aF5.0
aF5.0
aF5.0
aF5.0
aF5.0
aF1.0
aF4.0
aF5.0
aF4.0
aF1.0
aF4.0
aF5.0
aF5.0
aF5.0
aF5.0
aF1.0
aF1.0
aF1.0
aF5.0
aF5.0
aF1.0
aF5.0
aF4.0
aF1.0
aF1.0
aF5.0
aF1.0
aF4.0
aF1.0
aF5.0
aF5.0
aF1.0
aF5.0
aF4.0
aF4.0
aF5.0
aF5.0
aF1.0
aF1.0
aF4.0
aF4.0
aF2.0
aF5.0
aF1.0
aF5.0
aF5.0
aF1.0
aF1.0
aF1.0
aF5.0
aF4.0
aF5.0
aF5.0
aF2.0
aF4.0
aF5.0
aF5.0
aF5.0
aF4.0
aF5.0
aF1.0
aF5.0
aF5.0
aF4.0
aF5.0
aF4.0
aF4.0
aF5.0
aF4.0
aF4.0
aF5.0
aF4.0
aF5.0
aF5.0
aF4.0
aF5.0
aF5.0
aF5.0
aF5.0
aF5.0
aF5.0
aF5.0
aF5.0
aF5.0
aF5.0
aF4.0
aF5.0
aF1.0
aF5.0
aF5.0
aF5.0
aF5.0
aF5.0
aF1.0
aF1.0
aF5.0
aF5.0
aF5.0
aF5.0
aF5.0
aF5.0
aF5.0
aF5.0
aF5.0
aF5.0
aF5.0
aF2.0
aF2.0
aF4.0
aF1.0
aF5.0
aF5.0
aF5.0
aF1.0
aF4.0
aF4.0
aF4.0
aF4.0
aF4.0
aF5.0
aF5.0
aF5.0
aF5.0
aF5.0
aF5.0
aF5.0
aF5.0
aF1.0
aF4.0
aF5.0
aF4.0
aF1.0
aF4.0
aF5.0
aF1.0
aF4.0
aF5.0
aF4.0
aF5.0
aF1.0
aF5.0
aF5.0
aF5.0
aF4.0
aF2.0
aF4.0
aF4.0
aF4.0
aF5.0
aF1.0
aF1.0
aF5.0
aF2.0
aF1.0
aF5.0
aF4.0
aF1.0
aF5.0
aF2.0
aF5.0
aF5.0
aF5.0
aF5.0
aF5.0
aF5.0
aF2.0
aF4.0
aF5.0
aF5.0
aF2.0
aF5.0
aF5.0
aF2.0
aF5.0
aF5.0
aF5.0
aF5.0
aF1.0
aF5.0
aF5.0
aF2.0
aF5.0
aF4.0
aF4.0
aF4.0
aF5.0
aF4.0
aF4.0
aF5.0
aF2.0
aF5.0
aF1.0
aF2.0
aF5.0
aF5.0
aF4.0
aF5.0
aF5.0
aF5.0
aF5.0
aF5.0
aF1.0
aF1.0
aF1.0
aF4.0
aF5.0
aF1.0
aF5.0
aF2.0
aF5.0
aF4.0
aF4.0
aF5.0
aF4.0
aF5.0
aF5.0
aF5.0
aF4.0
aF4.0
aF5.0
aF5.0
aF5.0
aF4.0
aF5.0
aF4.0
aF5.0
aF5.0
aF5.0
aF5.0
aF1.0
aF4.0
aF5.0
aF4.0
aF4.0
aF4.0
aF5.0
aF4.0
aF4.0
aF5.0
aF5.0
aF5.0
aF5.0
aF5.0
aF5.0
aF5.0
aF5.0
aF5.0
aF5.0
aF4.0
aF5.0
aF5.0
aF5.0
aF5.0
aF1.0
aF5.0
aF5.0
aF5.0
aF5.0
aF4.0
aF5.0
aF4.0
aF2.0
aF4.0
aF5.0
aF5.0
aF5.0
aF5.0
aF5.0
aF5.0
aF5.0
aF5.0
aF5.0
aF5.0
aF4.0
aF5.0
aF5.0
aF4.0
aF5.0
aF4.0
aF4.0
aF5.0
aF5.0
aF4.0
aF5.0
aF4.0
aF5.0
aF5.0
aF1.0
aF4.0
aF5.0
aF5.0
aF5.0
aF5.0
aF4.0
aF5.0
aF4.0
aF5.0
aF4.0
aF4.0
aF5.0
aF5.0
aF4.0
aF5.0
aF5.0
aF5.0
aF5.0
aF5.0
aF1.0
aF1.0
aF4.0
aF4.0
aF4.0
aF5.0
aF5.0
aF1.0
aF1.0
aF5.0
aF4.0
aF2.0
aF4.0
aF1.0
aF1.0
aF1.0
aF4.0
aF2.0
aF5.0
aF4.0
aF5.0
aF4.0
aF4.0
aF1.0
aF5.0
aF2.0
aF5.0
aF1.0
aF5.0
aF1.0
aF4.0
aF5.0
aF1.0
aF1.0
aF4.0
aF4.0
aF4.0
aF5.0
aF5.0
aF5.0
aF5.0
aF5.0
aF4.0
aF5.0
aF5.0
aF1.0
aF4.0
aF4.0
aF1.0
aF5.0
aF5.0
aF4.0
aF4.0
aF4.0
aF5.0
aF5.0
aF5.0
aF4.0
aF5.0
aF5.0
aF5.0
aF5.0
aF4.0
aF1.0
aF5.0
aF5.0
aF5.0
aF4.0
aF5.0
aF5.0
aF4.0
aF4.0
aF5.0
aF5.0
aF4.0
aF5.0
aF5.0
aF1.0
aF5.0
aF5.0
aF5.0
aF1.0
aF5.0
aF5.0
aF1.0
aF4.0
aF4.0
aF1.0
aF5.0
aF5.0
aF4.0
aF5.0
aF5.0
aF5.0
aF4.0
aF5.0
aF4.0
aF5.0
aF2.0
aF5.0
aF2.0
aF5.0
aF1.0
aF5.0
aF4.0
aF5.0
aF1.0
aF4.0
aF5.0
aF1.0
aF2.0
aF1.0
aF1.0
aF5.0
aF4.0
aF1.0
aF1.0
aF5.0
aF1.0
aF5.0
aF1.0
aF5.0
aF5.0
aF5.0
aF5.0
aF4.0
aF4.0
aF5.0
aF5.0
aF5.0
aF5.0
aF5.0
aF5.0
aF5.0
aF4.0
aF4.0
aF5.0
aF2.0
aF5.0
aF1.0
aF1.0
aF4.0
aF1.0
aF1.0
aF1.0
aF1.0
aF1.0
aF5.0
aF5.0
aF4.0
aF4.0
aF5.0
aF4.0
aF4.0
aF5.0
aF5.0
aF5.0
aF4.0
aF4.0
aF5.0
aF5.0
aF5.0
aF5.0
aF4.0
aF2.0
aF4.0
aF1.0
aF5.0
aF5.0
aF1.0
aF4.0
aF5.0
aF4.0
aF5.0
aF5.0
aF5.0
aF5.0
aF5.0
aF2.0
aF5.0
aF5.0
aF5.0
aF5.0
aF5.0
aF4.0
aF5.0
aF2.0
aF5.0
aF1.0
aF5.0
aF2.0
aF5.0
aF4.0
aF4.0
aF1.0
aF1.0
aF1.0
aF5.0
aF4.0
aF5.0
aF5.0
aF4.0
aF4.0
aF4.0
aF4.0
aF4.0
aF5.0
aF1.0
aF5.0
aF5.0
aF2.0
aF4.0
aF2.0
aF4.0
aF1.0
aF5.0
aF1.0
aF5.0
aF4.0
aF5.0
aF5.0
aF1.0
aF5.0
aF5.0
aF1.0
aF4.0
aF1.0
aF1.0
aF5.0
aF5.0
aF5.0
aF4.0
aF1.0
aF1.0
aF2.0
aF5.0
aF5.0
aF5.0
aF5.0
aF2.0
aF1.0
aF5.0
aF5.0
aF5.0
aF5.0
aF5.0
aF5.0
aF4.0
aF4.0
aF4.0
aF4.0
aF5.0
aF1.0
aF2.0
aF2.0
aF5.0
aF5.0
aF4.0
aF2.0
aF5.0
aF1.0
aF2.0
aF5.0
aF2.0
aF5.0
aF5.0
aF4.0
aF4.0
aF1.0
aF5.0
aF2.0
aF4.0
aF5.0
aF4.0
aF4.0
aF5.0
aF5.0
aF1.0
aF5.0
aF4.0
aF5.0
aF5.0
aF5.0
aF5.0
aF5.0
aF5.0
aF5.0
aF5.0
aF5.0
aF4.0
aF1.0
aF4.0
aF5.0
aF4.0
aF4.0
aF5.0
aF5.0
aF5.0
aF1.0
aF5.0
aF4.0
aF1.0
aF1.0
aF4.0
aF4.0
aF5.0
aF5.0
aF5.0
aF4.0
aF5.0
aF5.0
aF4.0
aF5.0
aF4.0
aF1.0
aF5.0
aF5.0
aF5.0
aF4.0
aF4.0
aF5.0
aF5.0
aF5.0
aF5.0
aF1.0
aF4.0
aF4.0
aF5.0
aF2.0
aF4.0
aF4.0
aF4.0
aF4.0
aF4.0
aF5.0
aF5.0
aF5.0
aF5.0
aF4.0
aF1.0
aF2.0
aF5.0
aF5.0
aF5.0
aF1.0
aF1.0
aF1.0
aF5.0
aF1.0
aF1.0
aF1.0
aF4.0
aF4.0
aF5.0
aF5.0
aF4.0
aF4.0
aF4.0
aF5.0
aF5.0
aF5.0
aF4.0
aF2.0
aF1.0
aF1.0
aF1.0
aF5.0
aF5.0
aF5.0
aF2.0
aF5.0
aF5.0
aF5.0
aF4.0
aF5.0
aF5.0
aF4.0
aF4.0
aF1.0
aF4.0
aF4.0
aF5.0
aF5.0
aF5.0
aF5.0
aF5.0
aF5.0
aF5.0
aF4.0
aF5.0
aF5.0
aF5.0
aF5.0
aF4.0
aF4.0
aF5.0
aF5.0
aF5.0
aF4.0
aF5.0
aF4.0
aF4.0
aF5.0
aF1.0
aF5.0
aF4.0
aF2.0
aF2.0
aF5.0
aF5.0
aF5.0
aF5.0
aF5.0
aF5.0
aF2.0
aF5.0
aF4.0
aF5.0
aF5.0
aF5.0
aF1.0
aF5.0
aF5.0
aF4.0
aF4.0
aF4.0
aF5.0
aF5.0
aF5.0
aF2.0
aF5.0
aF5.0
aF5.0
aF4.0
aF5.0
aF5.0
aF4.0
aF4.0
aF5.0
aF5.0
aF1.0
aF5.0
aF1.0
aF5.0
aF2.0
aF4.0
aF5.0
aF5.0
aF5.0
aF4.0
aF5.0
aF5.0
aF5.0
aF5.0
aF5.0
aF2.0
aF4.0
aF1.0
aF5.0
aF5.0
aF1.0
aF4.0
aF2.0
aF5.0
aF4.0
aF5.0
aF5.0
aF5.0
aF4.0
aF2.0
aF4.0
aF5.0
aF4.0
aF4.0
aF4.0
aF5.0
aF5.0
aF5.0
aF4.0
aF5.0
aF4.0
aF5.0
aF4.0
aF2.0
aF4.0
aF1.0
aF1.0
aF4.0
aF1.0
aF5.0
aF4.0
aF2.0
aF1.0
aF5.0
aF4.0
aF5.0
aF1.0
aF5.0
aF5.0
aF5.0
aF5.0
aF5.0
aF5.0
aF5.0
aF5.0
aF5.0
aF4.0
aF5.0
aF5.0
aF4.0
aF5.0
aF2.0
aF5.0
aF4.0
aF5.0
aF4.0
aF1.0
aF5.0
aF4.0
aF5.0
aF2.0
aF4.0
aF1.0
aF1.0
aF1.0
aF4.0
aF5.0
aF1.0
aF5.0
aF4.0
aF5.0
aF5.0
aF5.0
aF4.0
aF1.0
aF5.0
aF1.0
aF2.0
aF5.0
aF4.0
aF5.0
aF4.0
aF1.0
aF1.0
aF2.0
aF4.0
aF5.0
aF5.0
aF4.0
aF4.0
aF5.0
aF4.0
aF5.0
aF5.0
aF5.0
aF5.0
aF5.0
aF5.0
aF5.0
aF5.0
aF4.0
aF5.0
aF5.0
aF4.0
aF5.0
aF5.0
aF1.0
aF1.0
aF5.0
aF5.0
aF5.0
aF5.0
aF1.0
aF4.0
aF4.0
aF5.0
aF5.0
aF4.0
aF5.0
aF5.0
aF5.0
aF1.0
aF5.0
aF5.0
aF5.0
aF2.0
aF2.0
aF5.0
aF4.0
aF4.0
aF4.0
aF1.0
aF4.0
aF4.0
aF1.0
aF1.0
aF1.0
aF4.0
aF5.0
aF4.0
aF5.0
aF5.0
aF5.0
aF5.0
aF2.0
aF4.0
aF4.0
aF5.0
aF5.0
aF2.0
aF5.0
aF5.0
aF5.0
aF5.0
aF5.0
aF5.0
aF5.0
aF5.0
aF5.0
aF5.0
aF5.0
aF5.0
aF5.0
aF4.0
aF4.0
aF5.0
aF1.0
aF5.0
aF5.0
aF5.0
aF4.0
aF4.0
aF4.0
aF5.0
aF5.0
aF5.0
aF5.0
aF5.0
aF5.0
aF4.0
aF5.0
aF5.0
aF5.0
aF5.0
aF5.0
aF5.0
aF5.0
aF5.0
aF5.0
aF4.0
aF4.0
aF5.0
aF5.0
aF5.0
aF5.0
aF5.0
aF4.0
aF2.0
aF5.0
aF4.0
aF1.0
aF1.0
aF4.0
aF4.0
aF5.0
aF1.0
aF5.0
aF4.0
aF5.0
aF4.0
aF5.0
aF1.0
aF1.0
aF1.0
aF5.0
aF5.0
aF5.0
aF5.0
aF1.0
aF4.0
aF5.0
aF4.0
aF5.0
aF1.0
aF5.0
aF5.0
aF5.0
aF5.0
aF5.0
aF1.0
aF5.0
aF5.0
aF5.0
aF1.0
aF1.0
aF5.0
aF1.0
aF1.0
aF5.0
aF5.0
aF4.0
aF4.0
aF5.0
aF5.0
aF5.0
aF5.0
aF5.0
aF4.0
aF5.0
aF5.0
aF5.0
aF5.0
aF5.0
aF4.0
aF1.0
aF1.0
aF5.0
aF5.0
aF5.0
aF4.0
aF5.0
aF1.0
aF4.0
aF5.0
aF4.0
aF2.0
aF2.0
aF5.0
aF1.0
aF5.0
aF2.0
aF5.0
aF5.0
aF5.0
aF4.0
aF4.0
aF5.0
aF5.0
aF5.0
aF4.0
aF4.0
aF1.0
aF5.0
aF5.0
aF4.0
aF4.0
aF4.0
aF4.0
aF5.0
aF5.0
aF4.0
aF4.0
aF5.0
aF4.0
aF5.0
aF4.0
aF4.0
aF5.0
aF2.0
aF5.0
aF4.0
aF5.0
aF5.0
aF5.0
aF5.0
aF4.0
aF5.0
aF5.0
aF4.0
aF4.0
aF5.0
aF5.0
aF5.0
aF5.0
aF5.0
aF5.0
aF4.0
aF5.0
aF5.0
aF5.0
aF5.0
aF5.0
aF5.0
aF4.0
aF5.0
aF5.0
aF1.0
aF2.0
aF5.0
aF5.0
aF5.0
aF5.0
aF5.0
aF2.0
aF5.0
aF5.0
aF4.0
aF4.0
aF5.0
aF5.0
aF4.0
aF4.0
aF4.0
aF5.0
aF5.0
aF5.0
aF5.0
aF5.0
aF1.0
aF4.0
aF5.0
aF1.0
aF2.0
aF2.0
aF5.0
aF5.0
aF4.0
aF5.0
aF5.0
aF4.0
aF4.0
aF5.0
aF5.0
aF5.0
aF5.0
aF5.0
aF1.0
aF5.0
aF5.0
aF5.0
aF4.0
aF4.0
aF5.0
aF2.0
aF5.0
aF5.0
aF5.0
aF2.0
aF4.0
aF5.0
aF5.0
aF5.0
aF5.0
aF5.0
aF5.0
aF4.0
aF4.0
aF4.0
aF1.0
aF4.0
aF5.0
aF1.0
aF5.0
aF4.0
aF4.0
aF4.0
aF5.0
aF4.0
aF5.0
aF5.0
aF5.0
aF4.0
aF5.0
aF5.0
aF1.0
aF4.0
aF5.0
aF5.0
aF4.0
aF4.0
aF4.0
aF4.0
aF4.0
aF5.0
aF1.0
aF5.0
aF5.0
aF5.0
aF5.0
aF5.0
aF4.0
aF1.0
aF5.0
aF4.0
aF5.0
aF4.0
aF4.0
aF5.0
aF4.0
aF5.0
aF5.0
aF5.0
aF4.0
aF4.0
aF2.0
aF5.0
aF5.0
aF4.0
aF4.0
aF4.0
aF5.0
aF5.0
aF4.0
aF5.0
aF1.0
aF5.0
aF5.0
aF1.0
aF5.0
aF5.0
aF1.0
aF5.0
aF4.0
aF5.0
aF5.0
aF4.0
aF5.0
aF5.0
aF5.0
aF4.0
aF5.0
aF5.0
aF5.0
aF5.0
aF5.0
aF5.0
aF5.0
aF4.0
aF5.0
aF5.0
aF1.0
aF5.0
aF4.0
aF5.0
aF4.0
aF5.0
aF5.0
aF5.0
aF4.0
aF5.0
aF5.0
aF5.0
aF5.0
aF5.0
aF5.0
aF5.0
aF5.0
aF1.0
aF5.0
aF5.0
aF4.0
aF5.0
aF5.0
aF4.0
aF4.0
aF5.0
aF5.0
aF5.0
aF4.0
aF5.0
aF5.0
aF5.0
aF5.0
aF5.0
aF5.0
aF5.0
aF5.0
aF4.0
aF4.0
aF5.0
aF1.0
aF1.0
aF1.0
aF5.0
aF5.0
aF1.0
aF1.0
aF5.0
aF5.0
aF5.0
aF5.0
aF4.0
aF5.0
aF5.0
aF5.0
aF4.0
aF1.0
aF4.0
aF4.0
aF1.0
aF1.0
aF4.0
aF4.0
aF5.0
aF1.0
aF2.0
aF1.0
aF5.0
aF5.0
aF5.0
aF5.0
aF5.0
aF5.0
aF4.0
aF5.0
aF5.0
aF4.0
aF1.0
aF5.0
aF2.0
aF5.0
aF5.0
aF4.0
aF4.0
aF4.0
aF4.0
aF2.0
aF4.0
aF2.0
aF2.0
aF5.0
aF5.0
aF5.0
aF5.0
aF5.0
aF1.0
aF5.0
aF5.0
aF5.0
aF1.0
aF4.0
aF4.0
aF4.0
aF5.0
aF5.0
aF2.0
aF4.0
aF1.0
aF5.0
aF4.0
aF4.0
aF5.0
aF4.0
aF2.0
aF1.0
aF5.0
aF5.0
aF5.0
aF5.0
aF5.0
aF4.0
aF1.0
aF5.0
aF1.0
aF2.0
aF4.0
aF5.0
aF4.0
aF5.0
aF5.0
aF5.0
aF5.0
aF5.0
aF4.0
aF1.0
aF1.0
aF2.0
aF4.0
aF1.0
aF5.0
aF5.0
aF1.0
aF4.0
aF5.0
aF1.0
aF5.0
aF5.0
aF5.0
aF5.0
aF5.0
aF5.0
aF5.0
aF5.0
aF5.0
aF5.0
aF4.0
aF5.0
aF1.0
aF5.0
aF4.0
aF5.0
aF5.0
aF5.0
aF5.0
aF1.0
aF5.0
aF4.0
aF5.0
aF5.0
aF1.0
aF4.0
aF4.0
aF5.0
aF4.0
aF4.0
aF5.0
aF5.0
aF1.0
aF4.0
aF5.0
aF4.0
aF4.0
aF5.0
aF5.0
aF1.0
aF4.0
aF5.0
aF5.0
aF5.0
aF1.0
aF1.0
aF1.0
aF5.0
aF5.0
aF4.0
aF5.0
aF4.0
aF2.0
aF5.0
aF5.0
aF1.0
aF1.0
aF4.0
aF1.0
aF2.0
aF4.0
aF4.0
aF4.0
aF4.0
aF5.0
aF5.0
aF5.0
aF1.0
aF2.0
aF5.0
aF5.0
aF2.0
aF4.0
aF4.0
aF4.0
aF5.0
aF5.0
aF1.0
aF5.0
aF4.0
aF5.0
aF5.0
aF5.0
aF2.0
aF5.0
aF2.0
aF4.0
aF1.0
aF1.0
aF2.0
aF4.0
aF5.0
aF4.0
aF5.0
aF5.0
aF1.0
aF1.0
aF5.0
aF5.0
aF4.0
aF4.0
aF1.0
aF1.0
aF1.0
aF1.0
aF4.0
aF4.0
aF4.0
aF4.0
aF4.0
aF5.0
aF5.0
aF5.0
aF4.0
aF5.0
aF5.0
aF4.0
aF5.0
aF5.0
aF5.0
aF4.0
aF5.0
aF1.0
aF4.0
aF5.0
aF4.0
aF5.0
aF4.0
aF5.0
aF5.0
aF5.0
aF4.0
aF4.0
aF5.0
aF1.0
aF2.0
aF5.0
aF5.0
aF5.0
aF5.0
aF4.0
aF5.0
aF5.0
aF4.0
aF5.0
aF4.0
aF2.0
aF1.0
aF4.0
aF5.0
aF4.0
aF5.0
aF5.0
aF4.0
aF5.0
aF5.0
aF2.0
aF4.0
aF5.0
aF1.0
aF2.0
aF5.0
aF4.0
aF5.0
aF1.0
aF1.0
aF5.0
aF4.0
aF5.0
aF4.0
aF5.0
aF5.0
aF2.0
aF4.0
aF4.0
aF1.0
aF1.0
aF5.0
aF4.0
aF5.0
aF5.0
aF5.0
aF5.0
aF4.0
aF5.0
aF5.0
aF5.0
aF5.0
aF5.0
aF5.0
aF4.0
aF1.0
aF4.0
aF2.0
aF5.0
aF5.0
aF4.0
aF4.0
aF5.0
aF4.0
aF4.0
aF5.0
aF4.0
aF1.0
aF5.0
aF5.0
aF4.0
aF5.0
aF5.0
aF4.0
aF4.0
aF5.0
aF5.0
aF5.0
aF5.0
aF5.0
aF5.0
aF5.0
aF2.0
aF1.0
aF1.0
aF4.0
aF5.0
aF4.0
aF1.0
aF1.0
aF5.0
aF5.0
aF1.0
aF1.0
aF4.0
aF5.0
aF4.0
aF5.0
aF5.0
aF4.0
aF5.0
aF4.0
aF4.0
aF5.0
aF4.0
aF4.0
aF4.0
aF5.0
aF5.0
aF5.0
aF1.0
aF4.0
aF5.0
aF4.0
aF5.0
aF5.0
aF5.0
aF5.0
aF5.0
aF5.0
aF5.0
aF5.0
aF4.0
aF5.0
aF2.0
aF2.0
aF5.0
aF4.0
aF1.0
aF4.0
aF5.0
aF5.0
aF4.0
aF4.0
aF5.0
aF4.0
aF2.0
aF1.0
aF2.0
aF4.0
aF5.0
aF4.0
aF5.0
aF5.0
aF5.0
aF5.0
aF5.0
aF5.0
aF1.0
aF5.0
aF4.0
aF5.0
aF4.0
aF1.0
aF4.0
aF4.0
aF5.0
aF4.0
aF1.0
aF5.0
aF4.0
aF4.0
aF4.0
aF1.0
aF5.0
aF5.0
aF5.0
aF4.0
aF4.0
aF5.0
aF5.0
aF5.0
aF5.0
aF5.0
aF5.0
aF5.0
aF5.0
aF5.0
aF5.0
aF5.0
aF4.0
aF5.0
aF5.0
aF4.0
aF5.0
aF5.0
aF4.0
aF5.0
aF5.0
aF5.0
aF5.0
aF5.0
aF5.0
aF4.0
aF5.0
aF4.0
aF5.0
aF5.0
aF5.0
aF5.0
aF4.0
aF5.0
aF4.0
aF5.0
aF4.0
aF4.0
aF5.0
aF4.0
aF4.0
aF5.0
aF5.0
aF5.0
aF2.0
aF5.0
aF5.0
aF5.0
aF4.0
aF2.0
aF5.0
aF5.0
aF5.0
aF5.0
aF5.0
aF2.0
aF4.0
aF1.0
aF5.0
aF4.0
aF4.0
aF4.0
aF4.0
aF1.0
aF5.0
aF4.0
aF4.0
aF5.0
aF2.0
aF5.0
aF2.0
aF4.0
aF4.0
aF5.0
aF5.0
aF5.0
aF5.0
aF5.0
aF5.0
aF4.0
aF4.0
aF5.0
aF5.0
aF4.0
aF5.0
aF5.0
aF2.0
aF4.0
aF2.0
aF5.0
aF5.0
aF1.0
aF5.0
aF5.0
aF4.0
aF4.0
aF5.0
aF1.0
aF5.0
aF1.0
aF5.0
aF4.0
aF5.0
aF5.0
aF4.0
aF4.0
aF2.0
aF2.0
aF4.0
aF1.0
aF5.0
aF4.0
aF4.0
aF5.0
aF5.0
aF5.0
aF5.0
aF4.0
aF5.0
aF4.0
aF4.0
aF4.0
aF5.0
aF4.0
aF4.0
aF5.0
aF4.0
aF5.0
aF5.0
aF4.0
aF5.0
aF5.0
aF5.0
aF5.0
aF5.0
aF2.0
aF5.0
aF4.0
aF5.0
aF4.0
aF5.0
aF5.0
aF4.0
aF5.0
aF5.0
aF5.0
aF5.0
aF5.0
aF4.0
aF5.0
aF5.0
aF5.0
aF5.0
aF5.0
aF5.0
aF5.0
aF2.0
aF1.0
aF5.0
aF5.0
aF4.0
aF1.0
aF5.0
aF5.0
aF5.0
aF5.0
aF2.0
aF4.0
aF1.0
aF1.0
aF4.0
aF5.0
aF1.0
aF1.0
aF2.0
aF4.0
aF5.0
aF5.0
aF2.0
aF5.0
aF1.0
aF2.0
aF4.0
aF1.0
aF5.0
aF5.0
aF4.0
aF4.0
aF2.0
aF4.0
aF5.0
aF5.0
aF5.0
aF1.0
aF1.0
aF2.0
aF1.0
aF5.0
aF5.0
aF5.0
aF5.0
aF5.0
aF2.0
aF5.0
aF4.0
aF4.0
aF2.0
aF4.0
aF1.0
aF4.0
aF2.0
aF5.0
aF5.0
aF4.0
aF1.0
aF5.0
aF4.0
aF5.0
aF5.0
aF5.0
aF4.0
aF5.0
aF5.0
aF5.0
aF5.0
aF5.0
aF5.0
aF5.0
aF5.0
aF1.0
aF5.0
aF4.0
aF5.0
aF5.0
aF4.0
aF1.0
aF5.0
aF5.0
aF4.0
aF5.0
aF4.0
aF5.0
aF4.0
aF5.0
aF4.0
aF5.0
aF5.0
aF5.0
aF5.0
aF5.0
aF1.0
aF4.0
aF5.0
aF5.0
aF5.0
aF2.0
aF1.0
aF4.0
aF1.0
aF1.0
aF5.0
aF5.0
aF4.0
aF5.0
aF1.0
aF5.0
aF5.0
aF2.0
aF5.0
aF5.0
aF5.0
aF2.0
aF4.0
aF2.0
aF4.0
aF5.0
aF4.0
aF5.0
aF5.0
aF2.0
aF5.0
aF1.0
aF5.0
aF5.0
aF5.0
aF5.0
aF5.0
aF4.0
aF5.0
aF5.0
aF5.0
aF5.0
aF4.0
aF5.0
aF4.0
aF4.0
aF4.0
aF5.0
aF4.0
aF1.0
aF5.0
aF4.0
aF2.0
aF5.0
aF5.0
aF4.0
aF5.0
aF5.0
aF5.0
aF5.0
aF5.0
aF5.0
aF5.0
aF4.0
aF4.0
aF4.0
aF5.0
aF5.0
aF5.0
aF5.0
aF5.0
aF4.0
aF4.0
aF2.0
aF5.0
aF4.0
aF4.0
aF5.0
aF5.0
aF5.0
aF5.0
aF5.0
aF5.0
aF5.0
aF5.0
aF5.0
aF5.0
aF4.0
aF5.0
aF4.0
aF5.0
aF4.0
aF4.0
aF4.0
aF5.0
aF4.0
aF4.0
aF5.0
aF4.0
aF4.0
aF4.0
aF5.0
aF5.0
aF4.0
aF4.0
aF5.0
aF2.0
aF4.0
aF5.0
aF5.0
aF1.0
aF5.0
aF1.0
aF5.0
aF5.0
aF5.0
aF5.0
aF4.0
aF4.0
aF5.0
aF5.0
aF4.0
aF5.0
aF5.0
aF5.0
aF5.0
aF5.0
aF5.0
aF4.0
aF5.0
aF5.0
aF4.0
aF5.0
aF5.0
aF5.0
aF2.0
aF4.0
aF5.0
aF5.0
aF4.0
aF5.0
aF5.0
aF5.0
aF5.0
aF5.0
aF5.0
aF4.0
aF5.0
aF5.0
aF5.0
aF5.0
aF5.0
aF5.0
aF5.0
aF4.0
aF5.0
aF5.0
aF5.0
aF5.0
aF2.0
aF4.0
aF1.0
aF5.0
aF5.0
aF5.0
aF5.0
aF5.0
aF4.0
aF4.0
aF4.0
aF2.0
aF5.0
aF5.0
aF1.0
aF5.0
aF5.0
aF5.0
aF2.0
aF1.0
aF1.0
aF5.0
aF1.0
aF5.0
aF5.0
aF4.0
aF5.0
aF5.0
aF4.0
aF5.0
aF2.0
aF4.0
aF4.0
aF5.0
aF5.0
aF5.0
aF5.0
aF5.0
aF5.0
aF5.0
aF5.0
aF4.0
aF2.0
aF2.0
aF1.0
aF4.0
aF4.0
aF5.0
aF5.0
aF4.0
aF4.0
aF2.0
aF5.0
aF5.0
aF5.0
aF5.0
aF4.0
aF5.0
aF4.0
aF5.0
aF5.0
aF2.0
aF5.0
aF5.0
aF4.0
aF5.0
aF1.0
aF5.0
aF5.0
aF5.0
aF4.0
aF4.0
aF5.0
aF5.0
aF4.0
aF2.0
aF4.0
aF5.0
aF5.0
aF2.0
aF2.0
aF4.0
aF5.0
aF5.0
aF4.0
aF4.0
aF5.0
aF5.0
aF5.0
aF2.0
aF5.0
aF4.0
aF5.0
aF4.0
aF5.0
aF5.0
aF2.0
aF5.0
aF4.0
aF4.0
aF4.0
aF4.0
aF4.0
aF1.0
aF4.0
aF5.0
aF5.0
aF4.0
aF5.0
aF2.0
aF1.0
aF1.0
aF4.0
aF5.0
aF5.0
aF4.0
aF1.0
aF4.0
aF4.0
aF2.0
aF5.0
aF5.0
aF5.0
aF5.0
aF2.0
aF4.0
aF5.0
aF5.0
aF5.0
aF4.0
aF2.0
aF5.0
aF5.0
aF5.0
aF5.0
aF4.0
aF5.0
aF5.0
aF5.0
aF5.0
aF4.0
aF5.0
aF1.0
aF4.0
aF4.0
aF4.0
aF4.0
aF4.0
aF5.0
aF4.0
aF1.0
aF4.0
aF4.0
aF4.0
aF5.0
aF1.0
aF4.0
aF5.0
aF2.0
aF2.0
aF5.0
aF1.0
aF1.0
aF2.0
aF5.0
aF5.0
aF5.0
aF5.0
aF1.0
aF1.0
aF4.0
aF1.0
aF5.0
aF5.0
aF5.0
aF5.0
aF5.0
aF5.0
aF4.0
aF1.0
aF5.0
aF5.0
aF5.0
aF4.0
aF5.0
aF4.0
aF1.0
aF5.0
aF1.0
aF5.0
aF5.0
aF4.0
aF4.0
aF5.0
aF4.0
aF5.0
aF2.0
aF4.0
aF4.0
aF5.0
aF4.0
aF4.0
aF4.0
aF4.0
aF5.0
aF5.0
aF4.0
aF5.0
aF5.0
aF1.0
aF4.0
aF4.0
aF5.0
aF5.0
aF5.0
aF4.0
aF4.0
aF4.0
aF4.0
aF4.0
aF2.0
aF5.0
aF4.0
aF5.0
aF5.0
aF5.0
aF5.0
aF4.0
aF4.0
aF4.0
aF4.0
aF5.0
aF4.0
aF5.0
aF4.0
aF5.0
aF5.0
aF4.0
aF5.0
aF5.0
aF5.0
aF5.0
aF4.0
aF4.0
aF1.0
aF1.0
aF4.0
aF5.0
aF5.0
aF1.0
aF5.0
aF5.0
aF5.0
aF5.0
aF5.0
aF1.0
aF5.0
aF4.0
aF5.0
aF5.0
aF5.0
aF5.0
aF5.0
aF5.0
aF5.0
aF4.0
aF2.0
aF5.0
aF5.0
aF5.0
aF5.0
aF4.0
aF5.0
aF5.0
aF4.0
aF5.0
aF4.0
aF4.0
aF5.0
aF5.0
aF4.0
aF2.0
aF5.0
aF5.0
aF5.0
aF5.0
aF5.0
aF4.0
aF5.0
aF1.0
aF5.0
aF4.0
aF4.0
aF5.0
aF5.0
aF5.0
aF5.0
aF4.0
aF2.0
aF5.0
aF5.0
aF5.0
aF4.0
aF5.0
aF5.0
aF4.0
aF5.0
aF4.0
aF5.0
aF5.0
aF5.0
aF4.0
aF5.0
aF4.0
aF4.0
aF5.0
aF1.0
aF2.0
aF4.0
aF1.0
aF1.0
aF5.0
aF1.0
aF2.0
aF4.0
aF5.0
aF5.0
aF5.0
aF5.0
aF5.0
aF5.0
aF5.0
aF2.0
aF5.0
aF1.0
aF5.0
aF5.0
aF5.0
aF5.0
aF5.0
aF5.0
aF4.0
aF2.0
aF5.0
aF5.0
aF5.0
aF5.0
aF5.0
aF5.0
aF1.0
aF1.0
aF5.0
aF5.0
aF4.0
aF4.0
aF2.0
aF1.0
aF5.0
aF1.0
aF4.0
aF5.0
aF4.0
aF2.0
aF4.0
aF4.0
aF5.0
aF4.0
aF5.0
aF4.0
aF5.0
aF1.0
aF4.0
aF1.0
aF5.0
aF1.0
aF2.0
aF4.0
aF1.0
aF5.0
aF4.0
aF5.0
aF5.0
aF1.0
aF1.0
aF5.0
aF4.0
aF5.0
aF5.0
aF5.0
aF5.0
aF4.0
aF5.0
aF1.0
aF5.0
aF5.0
aF5.0
aF5.0
aF4.0
aF4.0
aF4.0
aF5.0
aF1.0
aF5.0
aF5.0
aF1.0
aF4.0
aF1.0
aF1.0
aF4.0
aF4.0
aF4.0
aF5.0
aF4.0
aF4.0
aF4.0
aF5.0
aF5.0
aF5.0
aF4.0
aF5.0
aF5.0
aF5.0
aF5.0
aF5.0
aF1.0
aF1.0
aF5.0
aF5.0
aF5.0
aF5.0
aF5.0
aF5.0
aF5.0
aF5.0
aF5.0
aF5.0
aF1.0
aF5.0
aF1.0
aF1.0
aF1.0
aF4.0
aF1.0
aF4.0
aF4.0
aF4.0
aF5.0
aF4.0
aF4.0
aF5.0
aF5.0
aF5.0
aF4.0
aF5.0
aF5.0
aF5.0
aF5.0
aF5.0
aF2.0
aF5.0
aF5.0
aF5.0
aF5.0
aF4.0
aF5.0
aF4.0
aF5.0
aF5.0
aF1.0
aF1.0
aF1.0
aF1.0
aF5.0
aF4.0
aF1.0
aF4.0
aF2.0
aF4.0
aF4.0
aF5.0
aF4.0
aF5.0
aF5.0
aF5.0
aF4.0
aF4.0
aF5.0
aF5.0
aF5.0
aF5.0
aF5.0
aF1.0
aF5.0
aF5.0
aF4.0
aF5.0
aF5.0
aF5.0
aF5.0
aF2.0
aF5.0
aF4.0
aF5.0
aF5.0
aF5.0
aF4.0
aF5.0
aF4.0
aF5.0
aF5.0
aF5.0
aF1.0
aF1.0
aF5.0
aF4.0
aF4.0
aF4.0
aF5.0
aF1.0
aF5.0
aF4.0
aF1.0
aF4.0
aF5.0
aF1.0
aF4.0
aF2.0
aF5.0
aF5.0
aF4.0
aF5.0
aF5.0
aF4.0
aF5.0
aF5.0
aF5.0
aF4.0
aF5.0
aF4.0
aF1.0
aF5.0
aF5.0
aF5.0
aF4.0
aF5.0
aF5.0
aF4.0
aF1.0
aF1.0
aF4.0
aF5.0
aF5.0
aF5.0
aF5.0
aF5.0
aF5.0
aF4.0
aF4.0
aF4.0
aF5.0
aF5.0
aF5.0
aF2.0
aF5.0
aF2.0
aF5.0
aF5.0
aF4.0
aF5.0
aF5.0
aF5.0
aF1.0
aF1.0
aF5.0
aF5.0
aF5.0
aF5.0
aF4.0
aF5.0
aF5.0
aF4.0
aF5.0
aF5.0
aF4.0
aF1.0
aF5.0
aF2.0
aF4.0
aF5.0
aF1.0
aF5.0
aF1.0
aF4.0
aF2.0
aF5.0
aF2.0
aF5.0
aF4.0
aF2.0
aF5.0
aF4.0
aF5.0
aF1.0
aF4.0
aF5.0
aF2.0
aF4.0
aF4.0
aF5.0
aF5.0
aF4.0
aF4.0
aF5.0
aF5.0
aF5.0
aF4.0
aF5.0
aF4.0
aF4.0
aF1.0
aF4.0
aF5.0
aF4.0
aF4.0
aF4.0
aF1.0
aF5.0
aF1.0
aF1.0
aF2.0
aF5.0
aF1.0
aF5.0
aF5.0
aF5.0
aF2.0
aF5.0
aF1.0
aF5.0
aF1.0
aF5.0
aF5.0
aF5.0
aF5.0
aF5.0
aF5.0
aF5.0
aF5.0
aF5.0
aF4.0
aF5.0
aF5.0
aF5.0
aF5.0
aF5.0
aF5.0
aF5.0
aF5.0
aF4.0
aF5.0
aF4.0
aF5.0
aF5.0
aF4.0
aF4.0
aF4.0
aF1.0
aF5.0
aF5.0
aF4.0
aF2.0
aF4.0
aF1.0
aF5.0
aF2.0
aF5.0
aF5.0
aF2.0
aF1.0
aF1.0
aF1.0
aF1.0
aF5.0
aF5.0
aF5.0
aF4.0
aF5.0
aF4.0
aF5.0
aF4.0
aF5.0
aF5.0
aF5.0
aF5.0
aF4.0
aF5.0
aF4.0
aF5.0
aF5.0
aF5.0
aF4.0
aF5.0
aF5.0
aF5.0
aF5.0
aF5.0
aF4.0
aF5.0
aF5.0
aF5.0
aF5.0
aF1.0
aF5.0
aF5.0
aF1.0
aF5.0
aF5.0
aF5.0
aF5.0
aF4.0
aF5.0
aF4.0
aF4.0
aF4.0
aF5.0
aF4.0
aF4.0
aF5.0
aF5.0
aF5.0
aF5.0
aF5.0
aF5.0
aF5.0
aF5.0
aF4.0
aF4.0
aF5.0
aF5.0
aF5.0
aF5.0
aF5.0
aF4.0
aF5.0
aF4.0
aF5.0
aF4.0
aF5.0
aF5.0
aF4.0
aF5.0
aF5.0
aF5.0
aF4.0
aF5.0
aF4.0
aF5.0
aF5.0
aF4.0
aF1.0
aF1.0
aF4.0
aF4.0
aF5.0
aF1.0
aF5.0
aF2.0
aF2.0
aF5.0
aF2.0
aF4.0
aF1.0
aF5.0
aF5.0
aF1.0
aF5.0
aF4.0
aF5.0
aF5.0
aF5.0
aF1.0
aF4.0
aF5.0
aF1.0
aF1.0
aF5.0
aF5.0
aF5.0
aF4.0
aF5.0
aF2.0
aF4.0
aF5.0
aF5.0
aF5.0
aF5.0
aF5.0
aF5.0
aF5.0
aF4.0
aF4.0
aF2.0
aF5.0
aF4.0
aF2.0
aF1.0
aF1.0
aF1.0
aF5.0
aF4.0
aF5.0
aF5.0
aF4.0
aF5.0
aF1.0
aF5.0
aF5.0
aF4.0
aF1.0
aF5.0
aF5.0
aF2.0
aF5.0
aF5.0
aF5.0
aF4.0
aF5.0
aF5.0
aF5.0
aF5.0
aF2.0
aF5.0
aF4.0
aF5.0
aF5.0
aF4.0
aF5.0
aF5.0
aF5.0
aF4.0
aF5.0
aF5.0
aF4.0
aF5.0
aF4.0
aF5.0
aF4.0
aF2.0
aF5.0
aF5.0
aF1.0
aF5.0
aF4.0
aF5.0
aF4.0
aF5.0
aF5.0
aF1.0
aF5.0
aF5.0
aF1.0
aF5.0
aF5.0
aF1.0
aF5.0
aF5.0
aF5.0
aF2.0
aF5.0
aF5.0
aF4.0
aF5.0
aF5.0
aF5.0
aF5.0
aF4.0
aF5.0
aF5.0
aF5.0
aF5.0
aF5.0
aF5.0
aF5.0
aF4.0
aF5.0
aF4.0
aF5.0
aF4.0
aF5.0
aF5.0
aF5.0
aF5.0
aF5.0
aF2.0
aF5.0
aF5.0
aF5.0
aF5.0
aF1.0
aF5.0
aF4.0
aF5.0
aF5.0
aF4.0
aF5.0
aF5.0
aF1.0
aF5.0
aF5.0
aF5.0
aF4.0
aF4.0
aF2.0
aF5.0
aF5.0
aF4.0
aF4.0
aF4.0
aF5.0
aF5.0
aF5.0
aF5.0
aF5.0
aF5.0
aF5.0
aF5.0
aF4.0
aF5.0
aF5.0
aF5.0
aF4.0
aF4.0
aF5.0
aF5.0
aF4.0
aF5.0
aF5.0
aF5.0
aF5.0
aF5.0
aF4.0
aF5.0
aF5.0
aF4.0
aF5.0
aF5.0
aF5.0
aF5.0
aF4.0
aF5.0
aF5.0
aF4.0
aF1.0
aF4.0
aF5.0
aF5.0
aF5.0
aF5.0
aF5.0
aF2.0
aF5.0
aF5.0
aF5.0
aF5.0
aF5.0
aF4.0
aF4.0
aF5.0
aF5.0
aF5.0
aF5.0
aF5.0
aF5.0
aF5.0
aF5.0
aF5.0
aF4.0
aF1.0
aF4.0
aF5.0
aF1.0
aF5.0
aF5.0
aF1.0
aF4.0
aF4.0
aF5.0
aF5.0
aF5.0
aF2.0
aF5.0
aF4.0
aF1.0
aF4.0
aF5.0
aF4.0
aF4.0
aF5.0
aF5.0
aF4.0
aF4.0
aF5.0
aF5.0
aF5.0
aF4.0
aF2.0
aF5.0
aF5.0
aF5.0
aF5.0
aF4.0
aF5.0
aF1.0
aF4.0
aF1.0
aF4.0
aF5.0
aF5.0
aF5.0
aF4.0
aF5.0
aF5.0
aF5.0
aF1.0
aF5.0
aF4.0
aF5.0
aF5.0
aF1.0
aF4.0
aF5.0
aF1.0
aF5.0
aF5.0
aF5.0
aF1.0
aF5.0
aF5.0
aF1.0
aF4.0
aF5.0
aF1.0
aF1.0
aF4.0
aF1.0
aF5.0
aF4.0
aF4.0
aF4.0
aF5.0
aF1.0
aF5.0
aF4.0
aF5.0
aF2.0
aF4.0
aF5.0
aF5.0
aF5.0
aF4.0
aF5.0
aF5.0
aF4.0
aF5.0
aF4.0
aF5.0
aF5.0
aF5.0
aF5.0
aF4.0
aF1.0
aF1.0
aF4.0
aF5.0
aF5.0
aF5.0
aF5.0
aF1.0
aF4.0
aF5.0
aF5.0
aF4.0
aF5.0
aF5.0
aF5.0
aF4.0
aF4.0
aF2.0
aF2.0
aF4.0
aF4.0
aF4.0
aF4.0
aF4.0
aF4.0
aF5.0
aF5.0
aF5.0
aF4.0
aF5.0
aF5.0
aF5.0
aF5.0
aF5.0
aF5.0
aF5.0
aF4.0
aF5.0
aF5.0
aF5.0
aF5.0
aF4.0
aF5.0
aF1.0
aF4.0
aF1.0
aF1.0
aF2.0
aF1.0
aF1.0
aF1.0
aF2.0
aF1.0
aF5.0
aF1.0
aF4.0
aF1.0
aF5.0
aF5.0
aF5.0
aF4.0
aF5.0
aF4.0
aF5.0
aF5.0
aF5.0
aF5.0
aF5.0
aF5.0
aF5.0
aF4.0
aF5.0
aF5.0
aF5.0
aF5.0
aF5.0
aF2.0
aF4.0
aF4.0
aF4.0
aF5.0
aF5.0
aF2.0
aF5.0
aF1.0
aF1.0
aF4.0
aF5.0
aF4.0
aF4.0
aF5.0
aF5.0
aF5.0
aF5.0
aF5.0
aF5.0
aF5.0
aF5.0
aF4.0
aF5.0
aF5.0
aF5.0
aF5.0
aF5.0
aF5.0
aF5.0
aF5.0
aF1.0
aF2.0
aF5.0
aF4.0
aF2.0
aF1.0
aF5.0
aF4.0
aF5.0
aF5.0
aF5.0
aF4.0
aF4.0
aF5.0
aF5.0
aF5.0
aF5.0
aF2.0
aF4.0
aF5.0
aF5.0
aF5.0
aF4.0
aF5.0
aF5.0
aF5.0
aF5.0
aF5.0
aF5.0
aF5.0
aF5.0
aF4.0
aF1.0
aF4.0
aF5.0
aF4.0
aF5.0
aF4.0
aF1.0
aF4.0
aF4.0
aF1.0
aF1.0
aF5.0
aF4.0
aF2.0
aF4.0
aF5.0
aF5.0
aF1.0
aF5.0
aF5.0
aF1.0
aF5.0
aF2.0
aF2.0
aF1.0
aF1.0
aF5.0
aF5.0
aF5.0
aF5.0
aF5.0
aF5.0
aF5.0
aF4.0
aF5.0
aF5.0
aF4.0
aF5.0
aF4.0
aF4.0
aF1.0
aF5.0
aF5.0
aF5.0
aF5.0
aF4.0
aF1.0
aF4.0
aF2.0
aF4.0
aF1.0
aF5.0
aF4.0
aF5.0
aF5.0
aF4.0
aF4.0
aF1.0
aF4.0
aF5.0
aF4.0
aF1.0
aF5.0
aF5.0
aF5.0
aF5.0
aF4.0
aF4.0
aF5.0
aF4.0
aF5.0
aF2.0
aF5.0
aF5.0
aF5.0
aF4.0
aF4.0
aF4.0
aF4.0
aF5.0
aF4.0
aF5.0
aF5.0
aF1.0
aF4.0
aF5.0
aF5.0
aF1.0
aF4.0
aF5.0
aF5.0
aF1.0
aF1.0
aF5.0
aF1.0
aF5.0
aF5.0
aF5.0
aF2.0
aF4.0
aF5.0
aF1.0
aF4.0
aF4.0
aF5.0
aF5.0
aF5.0
aF5.0
aF4.0
aF4.0
aF5.0
aF5.0
aF4.0
aF4.0
aF5.0
aF4.0
aF4.0
aF4.0
aF5.0
aF2.0
aF5.0
aF1.0
aF5.0
aF4.0
aF5.0
aF5.0
aF5.0
aF2.0
aF5.0
aF4.0
aF5.0
aF5.0
aF1.0
aF4.0
aF5.0
aF5.0
aF5.0
aF5.0
aF4.0
aF1.0
aF5.0
aF4.0
aF1.0
aF5.0
aF5.0
aF5.0
aF5.0
aF5.0
aF4.0
aF4.0
aF5.0
aF4.0
aF4.0
aF2.0
aF4.0
aF4.0
aF5.0
aF5.0
aF4.0
aF1.0
aF5.0
aF5.0
aF5.0
aF5.0
aF5.0
aF5.0
aF2.0
aF2.0
aF5.0
aF5.0
aF5.0
aF5.0
aF5.0
aF5.0
aF5.0
aF4.0
aF5.0
aF5.0
aF5.0
aF1.0
aF5.0
aF2.0
aF1.0
aF1.0
aF5.0
aF4.0
aF2.0
aF5.0
aF5.0
aF5.0
aF2.0
aF4.0
aF5.0
aF5.0
aF4.0
aF4.0
aF1.0
aF5.0
aF5.0
aF5.0
aF5.0
aF5.0
aF5.0
aF1.0
aF5.0
aF4.0
aF5.0
aF5.0
aF5.0
aF4.0
aF4.0
aF5.0
aF4.0
aF2.0
aF2.0
aF1.0
aF5.0
aF5.0
aF2.0
aF4.0
aF4.0
aF5.0
aF5.0
aF5.0
aF5.0
aF5.0
aF5.0
aF4.0
aF2.0
aF5.0
aF4.0
aF5.0
aF5.0
aF5.0
aF4.0
aF4.0
aF4.0
aF5.0
aF4.0
aF5.0
aF5.0
aF5.0
aF4.0
aF4.0
aF5.0
aF5.0
aF5.0
aF2.0
aF4.0
aF4.0
aF1.0
aF5.0
aF5.0
aF4.0
aF5.0
aF5.0
aF4.0
aF5.0
aF5.0
aF4.0
aF5.0
aF5.0
aF5.0
aF5.0
aF5.0
aF4.0
aF1.0
aF5.0
aF1.0
aF5.0
aF5.0
aF2.0
aF5.0
aF5.0
aF5.0
aF5.0
aF5.0
aF5.0
aF4.0
aF5.0
aF5.0
aF5.0
aF5.0
aF4.0
aF5.0
aF5.0
aF4.0
aF5.0
aF5.0
aF5.0
aF5.0
aF1.0
aF1.0
aF4.0
aF1.0
aF4.0
aF5.0
aF1.0
aF2.0
aF1.0
aF1.0
aF2.0
aF1.0
aF5.0
aF4.0
aF5.0
aF5.0
aF1.0
aF4.0
aF4.0
aF5.0
aF2.0
aF4.0
aF1.0
aF4.0
aF1.0
aF5.0
aF1.0
aF5.0
aF5.0
aF1.0
aF4.0
aF4.0
aF5.0
aF5.0
aF4.0
aF4.0
aF4.0
aF4.0
aF4.0
aF1.0
aF5.0
aF5.0
aF1.0
aF5.0
aF5.0
aF4.0
aF1.0
aF4.0
aF4.0
aF1.0
aF4.0
aF5.0
aF5.0
aF5.0
aF1.0
aF1.0
aF1.0
aF4.0
aF2.0
aF5.0
aF1.0
aF2.0
aF5.0
aF4.0
aF5.0
aF1.0
aF4.0
aF5.0
aF5.0
aF4.0
aF4.0
aF5.0
aF5.0
aF5.0
aF1.0
aF1.0
aF5.0
aF5.0
aF5.0
aF5.0
aF1.0
aF1.0
aF5.0
aF5.0
aF4.0
aF4.0
aF5.0
aF1.0
aF5.0
aF5.0
aF4.0
aF4.0
aF4.0
aF5.0
aF4.0
aF4.0
aF5.0
aF4.0
aF1.0
aF4.0
aF5.0
aF5.0
aF4.0
aF5.0
aF5.0
aF5.0
aF5.0
aF5.0
aF5.0
aF4.0
aF5.0
aF2.0
aF1.0
aF5.0
aF4.0
aF5.0
aF5.0
aF4.0
aF5.0
aF1.0
aF5.0
aF1.0
aF5.0
aF4.0
aF5.0
aF5.0
aF5.0
aF2.0
aF5.0
aF4.0
aF4.0
aF4.0
aF5.0
aF5.0
aF5.0
aF4.0
aF4.0
aF4.0
aF2.0
aF5.0
aF5.0
aF5.0
aF5.0
aF5.0
aF5.0
aF5.0
aF5.0
aF5.0
aF5.0
aF5.0
aF5.0
aF1.0
aF1.0
aF1.0
aF2.0
aF2.0
aF1.0
aF1.0
aF5.0
aF5.0
aF5.0
aF4.0
aF5.0
aF5.0
aF5.0
aF5.0
aF5.0
aF5.0
aF5.0
aF4.0
aF5.0
aF4.0
aF5.0
aF4.0
aF4.0
aF5.0
aF4.0
aF5.0
aF5.0
aF5.0
aF5.0
aF5.0
aF5.0
aF5.0
aF4.0
aF5.0
aF1.0
aF1.0
aF5.0
aF5.0
aF5.0
aF1.0
aF4.0
aF2.0
aF5.0
aF5.0
aF5.0
aF5.0
aF5.0
aF5.0
aF5.0
aF4.0
aF5.0
aF5.0
aF5.0
aF5.0
aF5.0
aF5.0
aF1.0
aF4.0
aF1.0
aF5.0
aF5.0
aF4.0
aF4.0
aF5.0
aF1.0
aF5.0
aF5.0
aF4.0
aF5.0
aF4.0
aF5.0
aF5.0
aF5.0
aF4.0
aF5.0
aF5.0
aF1.0
aF5.0
aF2.0
aF5.0
aF5.0
aF5.0
aF5.0
aF1.0
aF5.0
aF2.0
aF2.0
aF5.0
aF5.0
aF5.0
aF4.0
aF2.0
aF4.0
aF4.0
aF5.0
aF2.0
aF4.0
aF1.0
aF4.0
aF1.0
aF2.0
aF4.0
aF1.0
aF1.0
aF5.0
aF5.0
aF5.0
aF5.0
aF4.0
aF2.0
aF2.0
aF4.0
aF5.0
aF5.0
aF5.0
aF5.0
aF4.0
aF5.0
aF5.0
aF5.0
aF5.0
aF5.0
aF5.0
aF4.0
aF4.0
aF4.0
aF5.0
aF4.0
aF2.0
aF5.0
aF4.0
aF5.0
aF4.0
aF5.0
aF4.0
aF5.0
aF4.0
aF5.0
aF4.0
aF4.0
aF5.0
aF5.0
aF5.0
aF5.0
aF5.0
aF1.0
aF4.0
aF2.0
aF5.0
aF5.0
aF4.0
aF5.0
aF5.0
aF1.0
aF5.0
aF5.0
aF5.0
aF4.0
aF5.0
aF4.0
aF4.0
aF5.0
aF1.0
aF5.0
aF2.0
aF4.0
aF1.0
aF5.0
aF5.0
aF1.0
aF5.0
aF2.0
aF5.0
aF5.0
aF5.0
aF4.0
aF5.0
aF1.0
aF4.0
aF4.0
aF5.0
aF5.0
aF5.0
aF5.0
aF5.0
aF5.0
aF4.0
aF2.0
aF1.0
aF5.0
aF5.0
aF2.0
aF4.0
aF5.0
aF4.0
aF5.0
aF5.0
aF5.0
aF4.0
aF5.0
aF1.0
aF5.0
aF4.0
aF2.0
aF2.0
aF5.0
aF5.0
aF5.0
aF2.0
aF4.0
aF5.0
aF5.0
aF5.0
aF4.0
aF4.0
aF5.0
aF5.0
aF5.0
aF5.0
aF5.0
aF1.0
aF4.0
aF4.0
aF4.0
aF2.0
aF4.0
aF5.0
aF5.0
aF1.0
aF5.0
aF5.0
aF5.0
aF5.0
aF5.0
aF2.0
aF5.0
aF4.0
aF1.0
aF1.0
aF4.0
aF4.0
aF4.0
aF4.0
aF4.0
aF5.0
aF5.0
aF4.0
aF5.0
aF5.0
aF1.0
aF5.0
aF5.0
aF4.0
aF5.0
aF4.0
aF5.0
aF5.0
aF4.0
aF5.0
aF4.0
aF5.0
aF5.0
aF4.0
aF5.0
aF5.0
aF1.0
aF5.0
aF5.0
aF5.0
aF1.0
aF1.0
aF2.0
aF5.0
aF1.0
aF5.0
aF5.0
aF5.0
aF2.0
aF1.0
aF5.0
aF5.0
aF5.0
aF5.0
aF5.0
aF5.0
aF5.0
aF5.0
aF5.0
aF5.0
aF4.0
aF5.0
aF4.0
aF5.0
aF1.0
aF4.0
aF1.0
aF5.0
aF5.0
aF5.0
aF5.0
aF2.0
aF5.0
aF4.0
aF5.0
aF5.0
aF1.0
aF5.0
aF5.0
aF4.0
aF5.0
aF4.0
aF5.0
aF2.0
aF5.0
aF5.0
aF5.0
aF5.0
aF2.0
aF4.0
aF1.0
aF1.0
aF2.0
aF4.0
aF5.0
aF1.0
aF5.0
aF5.0
aF5.0
aF5.0
aF4.0
aF5.0
aF4.0
aF1.0
aF1.0
aF2.0
aF4.0
aF4.0
aF5.0
aF4.0
aF4.0
aF5.0
aF2.0
aF5.0
aF2.0
aF5.0
aF4.0
aF5.0
aF5.0
aF5.0
aF5.0
aF5.0
aF5.0
aF5.0
aF5.0
aF5.0
aF5.0
aF5.0
aF5.0
aF5.0
aF4.0
aF5.0
aF5.0
aF5.0
aF5.0
aF4.0
aF5.0
aF5.0
aF5.0
aF4.0
aF4.0
aF5.0
aF5.0
aF5.0
aF5.0
aF5.0
aF5.0
aF1.0
aF5.0
aF5.0
aF4.0
aF5.0
aF1.0
aF4.0
aF5.0
aF4.0
aF1.0
aF5.0
aF1.0
aF4.0
aF5.0
aF4.0
aF4.0
aF5.0
aF4.0
aF1.0
aF1.0
aF1.0
aF4.0
aF5.0
aF5.0
aF1.0
aF5.0
aF5.0
aF1.0
aF5.0
aF5.0
aF5.0
aF4.0
aF5.0
aF5.0
aF5.0
aF5.0
aF5.0
aF4.0
aF4.0
aF5.0
aF4.0
aF5.0
aF4.0
aF4.0
aF4.0
aF4.0
aF5.0
aF4.0
aF4.0
aF5.0
aF5.0
aF5.0
aF2.0
aF4.0
aF1.0
aF4.0
aF4.0
aF5.0
aF5.0
aF4.0
aF5.0
aF5.0
aF5.0
aF5.0
aF5.0
aF5.0
aF5.0
aF5.0
aF5.0
aF1.0
aF5.0
aF5.0
aF4.0
aF5.0
aF4.0
aF4.0
aF2.0
aF5.0
aF2.0
aF4.0
aF5.0
aF5.0
aF4.0
aF4.0
aF4.0
aF1.0
aF5.0
aF5.0
aF5.0
aF5.0
aF4.0
aF5.0
aF5.0
aF4.0
aF5.0
aF5.0
aF5.0
aF1.0
aF1.0
aF4.0
aF4.0
aF4.0
aF5.0
aF5.0
aF5.0
aF5.0
aF1.0
aF5.0
aF1.0
aF1.0
aF1.0
aF4.0
aF5.0
aF4.0
aF4.0
aF5.0
aF1.0
aF5.0
aF5.0
aF5.0
aF2.0
aF5.0
aF5.0
aF5.0
aF4.0
aF5.0
aF5.0
aF1.0
aF4.0
aF1.0
aF1.0
aF4.0
aF4.0
aF1.0
aF5.0
aF5.0
aF5.0
aF4.0
aF5.0
aF5.0
aF5.0
aF5.0
aF5.0
aF5.0
aF5.0
aF4.0
aF5.0
aF5.0
aF5.0
aF4.0
aF4.0
aF5.0
aF5.0
aF5.0
aF5.0
aF5.0
aF5.0
aF2.0
aF1.0
aF1.0
aF1.0
aF1.0
aF1.0
aF4.0
aF5.0
aF5.0
aF4.0
aF4.0
aF5.0
aF5.0
aF4.0
aF5.0
aF5.0
aF5.0
aF5.0
aF5.0
aF5.0
aF5.0
aF4.0
aF5.0
aF5.0
aF4.0
aF5.0
aF1.0
aF4.0
aF4.0
aF4.0
aF5.0
aF5.0
aF4.0
aF5.0
aF5.0
aF4.0
aF5.0
aF1.0
aF1.0
aF1.0
aF5.0
aF4.0
aF5.0
aF5.0
aF5.0
aF5.0
aF2.0
aF4.0
aF4.0
aF4.0
aF5.0
aF5.0
aF5.0
aF5.0
aF4.0
aF5.0
aF5.0
aF5.0
aF4.0
aF1.0
aF4.0
aF4.0
aF4.0
aF1.0
aF4.0
aF5.0
aF4.0
aF5.0
aF5.0
aF5.0
aF5.0
aF2.0
aF5.0
aF5.0
aF2.0
aF1.0
aF1.0
aF2.0
aF5.0
aF4.0
aF1.0
aF5.0
aF2.0
aF5.0
aF4.0
aF5.0
aF4.0
aF5.0
aF5.0
aF4.0
aF4.0
aF5.0
aF5.0
aF4.0
aF5.0
aF5.0
aF5.0
aF4.0
aF5.0
aF5.0
aF4.0
aF4.0
aF4.0
aF5.0
aF4.0
aF5.0
aF5.0
aF4.0
aF5.0
aF5.0
aF4.0
aF1.0
aF4.0
aF5.0
aF5.0
aF5.0
aF5.0
aF4.0
aF5.0
aF5.0
aF5.0
aF4.0
aF4.0
aF5.0
aF5.0
aF5.0
aF1.0
aF1.0
aF5.0
aF5.0
aF5.0
aF5.0
aF5.0
aF1.0
aF1.0
aF4.0
aF5.0
aF5.0
aF4.0
aF1.0
aF5.0
aF5.0
aF5.0
aF4.0
aF5.0
aF5.0
aF1.0
aF5.0
aF5.0
aF5.0
aF5.0
aF4.0
aF1.0
aF5.0
aF1.0
aF5.0
aF1.0
aF2.0
aF4.0
aF4.0
aF5.0
aF4.0
aF5.0
aF5.0
aF1.0
aF5.0
aF2.0
aF4.0
aF2.0
aF5.0
aF5.0
aF5.0
aF5.0
aF5.0
aF1.0
aF4.0
aF5.0
aF5.0
aF1.0
aF5.0
aF2.0
aF5.0
aF4.0
aF4.0
aF4.0
aF4.0
aF5.0
aF5.0
aF1.0
aF5.0
aF5.0
aF5.0
aF4.0
aF5.0
aF4.0
aF4.0
aF5.0
aF5.0
aF5.0
aF4.0
aF4.0
aF5.0
aF5.0
aF5.0
aF5.0
aF5.0
aF1.0
aF5.0
aF4.0
aF4.0
aF4.0
aF4.0
aF5.0
aF5.0
aF5.0
aF5.0
aF4.0
aF4.0
aF5.0
aF5.0
aF5.0
aF5.0
aF5.0
aF4.0
aF2.0
aF5.0
aF5.0
aF5.0
aF5.0
aF5.0
aF5.0
aF4.0
aF1.0
aF5.0
aF1.0
aF2.0
aF1.0
aF4.0
aF2.0
aF4.0
aF4.0
aF4.0
aF5.0
aF5.0
aF5.0
aF1.0
aF5.0
aF5.0
aF5.0
aF5.0
aF1.0
aF2.0
aF5.0
aF5.0
aF5.0
aF5.0
aF5.0
aF5.0
aF5.0
aF1.0
aF1.0
aF5.0
aF5.0
aF4.0
aF4.0
aF5.0
aF4.0
aF2.0
aF5.0
aF2.0
aF5.0
aF2.0
aF5.0
aF4.0
aF5.0
aF5.0
aF5.0
aF5.0
aF4.0
aF5.0
aF5.0
aF4.0
aF4.0
aF2.0
aF5.0
aF4.0
aF5.0
aF5.0
aF4.0
aF4.0
aF5.0
aF5.0
aF4.0
aF4.0
aF5.0
aF5.0
aF5.0
aF5.0
aF5.0
aF4.0
aF5.0
aF2.0
aF5.0
aF5.0
aF5.0
aF5.0
aF5.0
aF5.0
aF5.0
aF4.0
aF4.0
aF5.0
aF1.0
aF5.0
aF5.0
aF2.0
aF5.0
aF5.0
aF5.0
aF5.0
aF5.0
aF5.0
aF4.0
aF5.0
aF4.0
aF4.0
aF5.0
aF4.0
aF5.0
aF4.0
aF5.0
aF4.0
aF5.0
aF5.0
aF5.0
aF5.0
aF4.0
aF5.0
aF4.0
aF5.0
aF2.0
aF4.0
aF4.0
aF5.0
aF4.0
aF5.0
aF5.0
aF4.0
aF2.0
aF4.0
aF4.0
aF4.0
aF1.0
aF4.0
aF5.0
aF4.0
aF4.0
aF5.0
aF4.0
aF5.0
aF5.0
aF5.0
aF2.0
aF5.0
aF5.0
aF5.0
aF4.0
aF1.0
aF4.0
aF5.0
aF5.0
aF5.0
aF4.0
aF5.0
aF4.0
aF4.0
aF1.0
aF4.0
aF5.0
aF4.0
aF5.0
aF4.0
aF4.0
aF5.0
aF5.0
aF4.0
aF5.0
aF5.0
aF5.0
aF5.0
aF5.0
aF1.0
aF5.0
aF2.0
aF4.0
aF4.0
aF5.0
aF4.0
aF4.0
aF4.0
aF5.0
aF4.0
aF1.0
aF2.0
aF5.0
aF1.0
aF1.0
aF1.0
aF5.0
aF5.0
aF4.0
aF5.0
aF5.0
aF5.0
aF5.0
aF5.0
aF5.0
aF5.0
aF5.0
aF1.0
aF5.0
aF5.0
aF5.0
aF4.0
aF5.0
aF5.0
aF5.0
aF2.0
aF5.0
aF5.0
aF1.0
aF4.0
aF5.0
aF1.0
aF1.0
aF5.0
aF2.0
aF5.0
aF4.0
aF1.0
aF5.0
aF1.0
aF5.0
aF5.0
aF5.0
aF4.0
aF5.0
aF4.0
aF4.0
aF5.0
aF2.0
aF5.0
aF5.0
aF4.0
aF5.0
aF4.0
aF5.0
aF4.0
aF2.0
aF5.0
aF1.0
aF5.0
aF5.0
aF2.0
aF4.0
aF5.0
aF5.0
aF4.0
aF1.0
aF5.0
aF4.0
aF2.0
aF4.0
aF5.0
aF5.0
aF1.0
aF4.0
aF1.0
aF1.0
aF5.0
aF4.0
aF5.0
aF1.0
aF4.0
aF4.0
aF5.0
aF1.0
aF1.0
aF5.0
aF5.0
aF5.0
aF5.0
aF5.0
aF4.0
aF5.0
aF5.0
aF5.0
aF5.0
aF5.0
aF5.0
aF5.0
aF5.0
aF5.0
aF5.0
aF5.0
aF5.0
aF4.0
aF5.0
aF5.0
aF5.0
aF5.0
aF5.0
aF5.0
aF5.0
aF5.0
aF5.0
aF5.0
aF5.0
aF5.0
aF4.0
aF5.0
aF5.0
aF4.0
aF1.0
aF4.0
aF5.0
aF4.0
aF5.0
aF5.0
aF5.0
aF5.0
aF2.0
aF5.0
aF1.0
aF5.0
aF2.0
aF5.0
aF5.0
aF4.0
aF2.0
aF5.0
aF1.0
aF2.0
aF5.0
aF5.0
aF5.0
aF5.0
aF5.0
aF5.0
aF5.0
aF5.0
aF4.0
aF5.0
aF5.0
aF5.0
aF5.0
aF5.0
aF5.0
aF5.0
aF5.0
aF1.0
aF5.0
aF5.0
aF5.0
aF5.0
aF5.0
aF4.0
aF5.0
aF4.0
aF5.0
aF5.0
aF5.0
aF5.0
aF1.0
aF4.0
aF4.0
aF5.0
aF2.0
aF2.0
aF4.0
aF4.0
aF4.0
aF1.0
aF2.0
aF1.0
aF1.0
aF5.0
aF4.0
aF5.0
aF5.0
aF5.0
aF5.0
aF5.0
aF5.0
aF4.0
aF5.0
aF4.0
aF5.0
aF4.0
aF4.0
aF4.0
aF1.0
aF5.0
aF5.0
aF5.0
aF4.0
aF4.0
aF5.0
aF5.0
aF4.0
aF4.0
aF5.0
aF5.0
aF5.0
aF5.0
aF1.0
aF5.0
aF4.0
aF4.0
aF4.0
aF5.0
aF4.0
aF5.0
aF1.0
aF5.0
aF5.0
aF5.0
aF1.0
aF1.0
aF1.0
aF1.0
aF5.0
aF5.0
aF5.0
aF1.0
aF5.0
aF1.0
aF5.0
aF1.0
aF1.0
aF4.0
aF5.0
aF5.0
aF5.0
aF5.0
aF5.0
aF5.0
aF5.0
aF5.0
aF5.0
aF4.0
aF5.0
aF4.0
aF4.0
aF5.0
aF5.0
aF5.0
aF4.0
aF5.0
aF1.0
aF5.0
aF4.0
aF5.0
aF5.0
aF5.0
aF5.0
aF2.0
aF4.0
aF5.0
aF5.0
aF5.0
aF4.0
aF5.0
aF5.0
aF4.0
aF5.0
aF4.0
aF4.0
aF5.0
aF5.0
aF5.0
aF5.0
aF2.0
aF5.0
aF4.0
aF5.0
aF5.0
aF1.0
aF4.0
aF1.0
aF2.0
aF5.0
aF4.0
aF5.0
aF4.0
aF5.0
aF5.0
aF4.0
aF2.0
aF5.0
aF5.0
aF5.0
aF5.0
aF5.0
aF4.0
aF1.0
aF4.0
aF4.0
aF1.0
aF4.0
aF5.0
aF1.0
aF5.0
aF5.0
aF2.0
aF5.0
aF5.0
aF5.0
aF5.0
aF5.0
aF4.0
aF5.0
aF2.0
aF5.0
aF5.0
aF5.0
aF1.0
aF1.0
aF5.0
aF5.0
aF5.0
aF5.0
aF5.0
aF5.0
aF4.0
aF5.0
aF4.0
aF5.0
aF5.0
aF4.0
aF5.0
aF4.0
aF5.0
aF5.0
aF5.0
aF4.0
aF4.0
aF4.0
aF4.0
aF2.0
aF1.0
aF1.0
aF5.0
aF4.0
aF5.0
aF5.0
aF5.0
aF1.0
aF5.0
aF5.0
aF5.0
aF5.0
aF5.0
aF5.0
aF5.0
aF5.0
aF1.0
aF5.0
aF1.0
aF1.0
aF5.0
aF4.0
aF5.0
aF5.0
aF5.0
aF4.0
aF5.0
aF5.0
aF5.0
aF5.0
aF5.0
aF4.0
aF4.0
aF5.0
aF5.0
aF5.0
aF5.0
aF4.0
aF5.0
aF5.0
aF4.0
aF4.0
aF4.0
aF4.0
aF5.0
aF5.0
aF2.0
aF4.0
aF4.0
aF4.0
aF5.0
aF1.0
aF5.0
aF5.0
aF1.0
aF5.0
aF5.0
aF5.0
aF1.0
aF5.0
aF4.0
aF4.0
aF4.0
aF1.0
aF4.0
aF4.0
aF4.0
aF5.0
aF5.0
aF2.0
aF1.0
aF5.0
aF4.0
aF5.0
aF4.0
aF1.0
aF5.0
aF5.0
aF1.0
aF4.0
aF5.0
aF1.0
aF5.0
aF5.0
aF4.0
aF5.0
aF4.0
aF4.0
aF4.0
aF5.0
aF5.0
aF5.0
aF4.0
aF5.0
aF5.0
aF5.0
aF1.0
aF4.0
aF1.0
aF4.0
a.